TN:
SF:/usr/include/c++/11/bits/unique_ptr.h
FN:79,_ZNKSt14default_deleteINSt7__cxx1118basic_stringstreamIcSt11char_traitsIcESaIcEEEEclEPS5_
FNDA:0,_ZNKSt14default_deleteINSt7__cxx1118basic_stringstreamIcSt11char_traitsIcESaIcEEEEclEPS5_
FN:79,_ZNKSt14default_deleteINSt7__cxx1112basic_stringIcSt11char_traitsIcESaIcEEEEclEPS5_
FNDA:0,_ZNKSt14default_deleteINSt7__cxx1112basic_stringIcSt11char_traitsIcESaIcEEEEclEPS5_
FN:172,_ZNSt15__uniq_ptr_implINSt7__cxx1118basic_stringstreamIcSt11char_traitsIcESaIcEEESt14default_deleteIS5_EE6_M_ptrEv
FNDA:0,_ZNSt15__uniq_ptr_implINSt7__cxx1118basic_stringstreamIcSt11char_traitsIcESaIcEEESt14default_deleteIS5_EE6_M_ptrEv
FN:172,_ZNSt15__uniq_ptr_implINSt7__cxx1112basic_stringIcSt11char_traitsIcESaIcEEESt14default_deleteIS5_EE6_M_ptrEv
FNDA:16,_ZNSt15__uniq_ptr_implINSt7__cxx1112basic_stringIcSt11char_traitsIcESaIcEEESt14default_deleteIS5_EE6_M_ptrEv
FN:173,_ZNKSt15__uniq_ptr_implINSt7__cxx1118basic_stringstreamIcSt11char_traitsIcESaIcEEESt14default_deleteIS5_EE6_M_ptrEv
FNDA:0,_ZNKSt15__uniq_ptr_implINSt7__cxx1118basic_stringstreamIcSt11char_traitsIcESaIcEEESt14default_deleteIS5_EE6_M_ptrEv
FN:173,_ZNKSt15__uniq_ptr_implINSt7__cxx1112basic_stringIcSt11char_traitsIcESaIcEEESt14default_deleteIS5_EE6_M_ptrEv
FNDA:0,_ZNKSt15__uniq_ptr_implINSt7__cxx1112basic_stringIcSt11char_traitsIcESaIcEEESt14default_deleteIS5_EE6_M_ptrEv
FN:174,_ZNSt15__uniq_ptr_implINSt7__cxx1118basic_stringstreamIcSt11char_traitsIcESaIcEEESt14default_deleteIS5_EE10_M_deleterEv
FNDA:0,_ZNSt15__uniq_ptr_implINSt7__cxx1118basic_stringstreamIcSt11char_traitsIcESaIcEEESt14default_deleteIS5_EE10_M_deleterEv
FN:174,_ZNSt15__uniq_ptr_implINSt7__cxx1112basic_stringIcSt11char_traitsIcESaIcEEESt14default_deleteIS5_EE10_M_deleterEv
FNDA:0,_ZNSt15__uniq_ptr_implINSt7__cxx1112basic_stringIcSt11char_traitsIcESaIcEEESt14default_deleteIS5_EE10_M_deleterEv
FN:177,_ZNSt15__uniq_ptr_implINSt7__cxx1112basic_stringIcSt11char_traitsIcESaIcEEESt14default_deleteIS5_EE5resetEPS5_
FNDA:0,_ZNSt15__uniq_ptr_implINSt7__cxx1112basic_stringIcSt11char_traitsIcESaIcEEESt14default_deleteIS5_EE5resetEPS5_
FN:355,_ZNSt10unique_ptrINSt7__cxx1112basic_stringIcSt11char_traitsIcESaIcEEESt14default_deleteIS5_EED2Ev
FNDA:16,_ZNSt10unique_ptrINSt7__cxx1112basic_stringIcSt11char_traitsIcESaIcEEESt14default_deleteIS5_EED2Ev
FN:355,_ZNSt10unique_ptrINSt7__cxx1118basic_stringstreamIcSt11char_traitsIcESaIcEEESt14default_deleteIS5_EED2Ev
FNDA:0,_ZNSt10unique_ptrINSt7__cxx1118basic_stringstreamIcSt11char_traitsIcESaIcEEESt14default_deleteIS5_EED2Ev
FN:405,_ZNKSt10unique_ptrINSt7__cxx1118basic_stringstreamIcSt11char_traitsIcESaIcEEESt14default_deleteIS5_EEdeEv
FNDA:0,_ZNKSt10unique_ptrINSt7__cxx1118basic_stringstreamIcSt11char_traitsIcESaIcEEESt14default_deleteIS5_EEdeEv
FN:413,_ZNKSt10unique_ptrINSt7__cxx1112basic_stringIcSt11char_traitsIcESaIcEEESt14default_deleteIS5_EEptEv
FNDA:0,_ZNKSt10unique_ptrINSt7__cxx1112basic_stringIcSt11char_traitsIcESaIcEEESt14default_deleteIS5_EEptEv
FN:421,_ZNKSt10unique_ptrINSt7__cxx1118basic_stringstreamIcSt11char_traitsIcESaIcEEESt14default_deleteIS5_EE3getEv
FNDA:0,_ZNKSt10unique_ptrINSt7__cxx1118basic_stringstreamIcSt11char_traitsIcESaIcEEESt14default_deleteIS5_EE3getEv
FN:421,_ZNKSt10unique_ptrINSt7__cxx1112basic_stringIcSt11char_traitsIcESaIcEEESt14default_deleteIS5_EE3getEv
FNDA:0,_ZNKSt10unique_ptrINSt7__cxx1112basic_stringIcSt11char_traitsIcESaIcEEESt14default_deleteIS5_EE3getEv
FN:426,_ZNSt10unique_ptrINSt7__cxx1112basic_stringIcSt11char_traitsIcESaIcEEESt14default_deleteIS5_EE11get_deleterEv
FNDA:0,_ZNSt10unique_ptrINSt7__cxx1112basic_stringIcSt11char_traitsIcESaIcEEESt14default_deleteIS5_EE11get_deleterEv
FN:426,_ZNSt10unique_ptrINSt7__cxx1118basic_stringstreamIcSt11char_traitsIcESaIcEEESt14default_deleteIS5_EE11get_deleterEv
FNDA:0,_ZNSt10unique_ptrINSt7__cxx1118basic_stringstreamIcSt11char_traitsIcESaIcEEESt14default_deleteIS5_EE11get_deleterEv
FN:452,_ZNSt10unique_ptrINSt7__cxx1112basic_stringIcSt11char_traitsIcESaIcEEESt14default_deleteIS5_EE5resetEPS5_
FNDA:0,_ZNSt10unique_ptrINSt7__cxx1112basic_stringIcSt11char_traitsIcESaIcEEESt14default_deleteIS5_EE5resetEPS5_
DA:79,0
DA:85,0
DA:86,0
DA:79,0
DA:85,0
DA:86,0
DA:172,16
DA:172,0
DA:173,0
DA:173,0
DA:174,0
DA:174,0
DA:177,0
DA:179,0
DA:180,0
DA:181,0
DA:182,0
DA:183,0
DA:355,16
DA:359,16
DA:360,16
DA:361,0
DA:362,16
DA:363,16
DA:355,0
DA:359,0
DA:360,0
DA:361,0
DA:362,0
DA:363,0
DA:405,0
DA:407,0
DA:408,0
DA:413,0
DA:416,0
DA:421,0
DA:422,0
DA:421,0
DA:422,0
DA:426,0
DA:427,0
DA:426,0
DA:427,0
DA:452,0
DA:456,0
DA:457,0
end_of_record
SF:/usr/include/c++/11/bits/stl_iterator_base_types.h
FN:238,_ZSt19__iterator_categoryIPcENSt15iterator_traitsIT_E17iterator_categoryERKS2_
FNDA:0,_ZSt19__iterator_categoryIPcENSt15iterator_traitsIT_E17iterator_categoryERKS2_
FN:238,_ZSt19__iterator_categoryIPKcENSt15iterator_traitsIT_E17iterator_categoryERKS3_
FNDA:78,_ZSt19__iterator_categoryIPKcENSt15iterator_traitsIT_E17iterator_categoryERKS3_
DA:238,0
DA:239,0
DA:238,78
DA:239,78
end_of_record
SF:/usr/include/c++/11/bits/allocator.h
FN:156,_ZNSaI10ComponenteEC2Ev
FNDA:16,_ZNSaI10ComponenteEC2Ev
FN:174,_ZNSaI10ComponenteED2Ev
FNDA:16,_ZNSaI10ComponenteED2Ev
DA:156,16
DA:174,16
end_of_record
SF:/usr/include/c++/11/ext/type_traits.h
FN:152,_ZN9__gnu_cxx17__is_null_pointerIcEEbPT_
FNDA:0,_ZN9__gnu_cxx17__is_null_pointerIcEEbPT_
FN:152,_ZN9__gnu_cxx17__is_null_pointerIKcEEbPT_
FNDA:78,_ZN9__gnu_cxx17__is_null_pointerIKcEEbPT_
DA:152,0
DA:153,0
DA:152,78
DA:153,78
end_of_record
SF:/usr/include/gtest/gtest-printers.h
FN:212,_ZN7testing8internal52internal_stream_operator_without_lexical_name_lookup13StreamPrinter10PrintValueImvRSoEEvRKT_PSo
FNDA:0,_ZN7testing8internal52internal_stream_operator_without_lexical_name_lookup13StreamPrinter10PrintValueImvRSoEEvRKT_PSo
FN:306,_ZN7testing8internal17PrintWithFallbackImEEvRKT_PSo
FNDA:0,_ZN7testing8internal17PrintWithFallbackImEEvRKT_PSo
FN:333,_ZN7testing8internal19FormatForComparisonImmE6FormatB5cxx11ERKm
FNDA:0,_ZN7testing8internal19FormatForComparisonImmE6FormatB5cxx11ERKm
FN:413,_ZN7testing8internal33FormatForComparisonFailureMessageImmEENSt7__cxx1112basic_stringIcSt11char_traitsIcESaIcEEERKT_RKT0_
FNDA:0,_ZN7testing8internal33FormatForComparisonFailureMessageImmEENSt7__cxx1112basic_stringIcSt11char_traitsIcESaIcEEERKT_RKT0_
FN:440,_ZN7testing8internal7PrintToImEEvRKT_PSo
FNDA:0,_ZN7testing8internal7PrintToImEEvRKT_PSo
FN:682,_ZN7testing8internal16UniversalPrinterImE5PrintERKmPSo
FNDA:0,_ZN7testing8internal16UniversalPrinterImE5PrintERKmPSo
FN:864,_ZN7testing8internal21UniversalTersePrinterImE5PrintERKmPSo
FNDA:0,_ZN7testing8internal21UniversalTersePrinterImE5PrintERKmPSo
FN:976,_ZN7testing8internal14UniversalPrintImEEvRKT_PSo
FNDA:0,_ZN7testing8internal14UniversalPrintImEEvRKT_PSo
FN:1016,_ZN7testing13PrintToStringImEENSt7__cxx1112basic_stringIcSt11char_traitsIcESaIcEEERKT_
FNDA:0,_ZN7testing13PrintToStringImEENSt7__cxx1112basic_stringIcSt11char_traitsIcESaIcEEERKT_
DA:212,0
DA:215,0
DA:216,0
DA:306,0
DA:312,0
DA:313,0
DA:333,0
DA:334,0
DA:413,0
DA:415,0
DA:440,0
DA:441,0
DA:442,0
DA:682,0
DA:691,0
DA:692,0
DA:864,0
DA:865,0
DA:866,0
DA:976,0
DA:980,0
DA:981,0
DA:1016,0
DA:1017,0
DA:1018,0
DA:1019,0
DA:1020,0
end_of_record
SF:/usr/include/gtest/internal/gtest-type-util.h
FN:55,_ZN7testing8internal31CanonicalizeForStdLibVersioningENSt7__cxx1112basic_stringIcSt11char_traitsIcESaIcEEE
FNDA:0,_ZN7testing8internal31CanonicalizeForStdLibVersioningENSt7__cxx1112basic_stringIcSt11char_traitsIcESaIcEEE
FN:69,_ZN7testing8internal11GetTypeNameB5cxx11ERKSt9type_info
FNDA:0,_ZN7testing8internal11GetTypeNameB5cxx11ERKSt9type_info
DA:55,0
DA:57,0
DA:58,0
DA:59,0
DA:61,0
DA:64,0
DA:69,0
DA:70,0
DA:72,0
DA:78,0
DA:79,0
DA:80,0
DA:81,0
DA:85,0
end_of_record
SF:/home/diego/ie0217/repo/ie0217/Tarea7/src/inventario.hpp
end_of_record
SF:/usr/include/c++/11/typeinfo
FN:99,_ZNKSt9type_info4nameEv
FNDA:0,_ZNKSt9type_info4nameEv
DA:99,0
DA:100,0
end_of_record
SF:/usr/include/c++/11/bits/move.h
FN:49,_ZSt11__addressofI10ComponenteEPT_RS1_
FNDA:22,_ZSt11__addressofI10ComponenteEPT_RS1_
FN:104,_ZSt4moveIRPNSt7__cxx1112basic_stringIcSt11char_traitsIcESaIcEEEEONSt16remove_referenceIT_E4typeEOS9_
FNDA:0,_ZSt4moveIRPNSt7__cxx1112basic_stringIcSt11char_traitsIcESaIcEEEEONSt16remove_referenceIT_E4typeEOS9_
FN:104,_ZSt4moveIRPNSt7__cxx1118basic_stringstreamIcSt11char_traitsIcESaIcEEEEONSt16remove_referenceIT_E4typeEOS9_
FNDA:0,_ZSt4moveIRPNSt7__cxx1118basic_stringstreamIcSt11char_traitsIcESaIcEEEEONSt16remove_referenceIT_E4typeEOS9_
FN:104,_ZSt4moveIRSaIcEEONSt16remove_referenceIT_E4typeEOS3_
FNDA:0,_ZSt4moveIRSaIcEEONSt16remove_referenceIT_E4typeEOS3_
DA:49,22
DA:50,22
DA:104,0
DA:105,0
DA:104,0
DA:105,0
DA:104,0
DA:105,0
end_of_record
SF:/usr/include/c++/11/iostream
end_of_record
SF:/usr/include/gtest/gtest.h
FN:324,_ZNK7testing15AssertionResultcvbEv
FNDA:16,_ZNK7testing15AssertionResultcvbEv
FN:333,_ZNK7testing15AssertionResult7messageEv
FNDA:0,_ZNK7testing15AssertionResult7messageEv
FN:337,_ZNK7testing15AssertionResult15failure_messageEv
FNDA:0,_ZNK7testing15AssertionResult15failure_messageEv
FN:340,_ZN7testing15AssertionResultlsIA5_cEERS0_RKT_
FNDA:0,_ZN7testing15AssertionResultlsIA5_cEERS0_RKT_
FN:340,_ZN7testing15AssertionResultlsINSt7__cxx1112basic_stringIcSt11char_traitsIcESaIcEEEEERS0_RKT_
FNDA:0,_ZN7testing15AssertionResultlsINSt7__cxx1112basic_stringIcSt11char_traitsIcESaIcEEEEERS0_RKT_
FN:340,_ZN7testing15AssertionResultlsIA3_cEERS0_RKT_
FNDA:0,_ZN7testing15AssertionResultlsIA3_cEERS0_RKT_
FN:340,_ZN7testing15AssertionResultlsIPKcEERS0_RKT_
FNDA:0,_ZN7testing15AssertionResultlsIPKcEERS0_RKT_
FN:340,_ZN7testing15AssertionResultlsIA12_cEERS0_RKT_
FNDA:0,_ZN7testing15AssertionResultlsIA12_cEERS0_RKT_
FN:355,_ZN7testing15AssertionResult13AppendMessageERKNS_7MessageE
FNDA:0,_ZN7testing15AssertionResult13AppendMessageERKNS_7MessageE
FN:427,_ZN7testing4Test14SetUpTestSuiteEv
FNDA:0,_ZN7testing4Test14SetUpTestSuiteEv
FN:435,_ZN7testing4Test17TearDownTestSuiteEv
FNDA:0,_ZN7testing4Test17TearDownTestSuiteEv
FN:440,_ZN7testing4Test16TearDownTestCaseEv
FNDA:0,_ZN7testing4Test16TearDownTestCaseEv
FN:441,_ZN7testing4Test13SetUpTestCaseEv
FNDA:0,_ZN7testing4Test13SetUpTestCaseEv
FN:522,_ZN7testing4Test5SetupEv
FNDA:0,_ZN7testing4Test5SetupEv
FN:1595,_ZN7testing8internal18CmpHelperOpFailureImmEENS_15AssertionResultEPKcS4_RKT_RKT0_S4_
FNDA:0,_ZN7testing8internal18CmpHelperOpFailureImmEENS_15AssertionResultEPKcS4_RKT_RKT0_S4_
FN:1624,_ZN7testing8internal11CmpHelperNEImmEENS_15AssertionResultEPKcS4_RKT_RKT0_
FNDA:16,_ZN7testing8internal11CmpHelperNEImmEENS_15AssertionResultEPKcS4_RKT_RKT0_
DA:324,16
DA:333,0
DA:334,0
DA:337,0
DA:340,0
DA:341,0
DA:342,0
DA:340,0
DA:341,0
DA:342,0
DA:340,0
DA:341,0
DA:342,0
DA:340,0
DA:341,0
DA:342,0
DA:340,0
DA:341,0
DA:342,0
DA:355,0
DA:356,0
DA:357,0
DA:358,0
DA:427,0
DA:435,0
DA:440,0
DA:441,0
DA:522,0
DA:1595,0
DA:1599,0
DA:1600,0
DA:1601,0
DA:1624,16
end_of_record
SF:/usr/include/c++/11/bits/stl_construct.h
FN:146,_ZSt8_DestroyI10ComponenteEvPT_
FNDA:16,_ZSt8_DestroyI10ComponenteEvPT_
FN:160,_ZNSt12_Destroy_auxILb0EE9__destroyIP10ComponenteEEvT_S4_
FNDA:16,_ZNSt12_Destroy_auxILb0EE9__destroyIP10ComponenteEEvT_S4_
FN:182,_ZSt8_DestroyIP10ComponenteEvT_S2_
FNDA:16,_ZSt8_DestroyIP10ComponenteEvT_S2_
DA:146,16
DA:151,16
DA:153,16
DA:160,16
DA:162,32
DA:163,16
DA:164,16
DA:182,16
DA:196,16
DA:197,16
end_of_record
SF:/usr/include/c++/11/bits/stl_vector.h
FN:97,_ZNSt12_Vector_baseI10ComponenteSaIS0_EE17_Vector_impl_dataC2Ev
FNDA:16,_ZNSt12_Vector_baseI10ComponenteSaIS0_EE17_Vector_impl_dataC2Ev
FN:131,_ZNSt12_Vector_baseI10ComponenteSaIS0_EE12_Vector_implC2Ev
FNDA:16,_ZNSt12_Vector_baseI10ComponenteSaIS0_EE12_Vector_implC2Ev
FN:276,_ZNSt12_Vector_baseI10ComponenteSaIS0_EE19_M_get_Tp_allocatorEv
FNDA:48,_ZNSt12_Vector_baseI10ComponenteSaIS0_EE19_M_get_Tp_allocatorEv
FN:288,_ZNSt12_Vector_baseI10ComponenteSaIS0_EEC2Ev
FNDA:16,_ZNSt12_Vector_baseI10ComponenteSaIS0_EEC2Ev
FN:333,_ZNSt12_Vector_baseI10ComponenteSaIS0_EED2Ev
FNDA:16,_ZNSt12_Vector_baseI10ComponenteSaIS0_EED2Ev
FN:350,_ZNSt12_Vector_baseI10ComponenteSaIS0_EE13_M_deallocateEPS0_m
FNDA:32,_ZNSt12_Vector_baseI10ComponenteSaIS0_EE13_M_deallocateEPS0_m
FN:487,_ZNSt6vectorI10ComponenteSaIS0_EEC2Ev
FNDA:16,_ZNSt6vectorI10ComponenteSaIS0_EEC2Ev
FN:678,_ZNSt6vectorI10ComponenteSaIS0_EED2Ev
FNDA:16,_ZNSt6vectorI10ComponenteSaIS0_EED2Ev
DA:97,16
DA:98,16
DA:99,16
DA:131,16
DA:133,16
DA:134,16
DA:276,48
DA:277,48
DA:288,16
DA:333,16
DA:335,16
DA:336,16
DA:337,16
DA:350,32
DA:353,32
DA:354,16
DA:355,32
DA:487,16
DA:678,16
DA:680,16
DA:681,16
DA:683,16
end_of_record
SF:/usr/include/gtest/internal/gtest-port.h
FN:977,_ZN7testing8internal8GTestLog9GetStreamEv
FNDA:0,_ZN7testing8internal8GTestLog9GetStreamEv
DA:977,0
end_of_record
SF:/usr/include/c++/11/ext/alloc_traits.h
FN:97,_ZN9__gnu_cxx14__alloc_traitsISaIcEcE17_S_select_on_copyERKS1_
FNDA:0,_ZN9__gnu_cxx14__alloc_traitsISaIcEcE17_S_select_on_copyERKS1_
DA:97,0
DA:98,0
end_of_record
SF:/home/diego/ie0217/repo/ie0217/Tarea7/tests/testInventario.cpp
FN:7,_ZN42InventarioTest_AgregarComponenteNuevo_TestC2Ev
FNDA:2,_ZN42InventarioTest_AgregarComponenteNuevo_TestC2Ev
FN:7,_ZN42InventarioTest_AgregarComponenteNuevo_Test8TestBodyEv
FNDA:2,_ZN42InventarioTest_AgregarComponenteNuevo_Test8TestBodyEv
FN:7,_ZN42InventarioTest_AgregarComponenteNuevo_TestD2Ev
FNDA:2,_ZN42InventarioTest_AgregarComponenteNuevo_TestD2Ev
FN:7,_ZN42InventarioTest_AgregarComponenteNuevo_TestD0Ev
FNDA:2,_ZN42InventarioTest_AgregarComponenteNuevo_TestD0Ev
FN:17,_ZN44InventarioTest_AgregarCantidadExistente_TestC2Ev
FNDA:2,_ZN44InventarioTest_AgregarCantidadExistente_TestC2Ev
FN:17,_ZN44InventarioTest_AgregarCantidadExistente_Test8TestBodyEv
FNDA:2,_ZN44InventarioTest_AgregarCantidadExistente_Test8TestBodyEv
FN:17,_ZN44InventarioTest_AgregarCantidadExistente_TestD2Ev
FNDA:2,_ZN44InventarioTest_AgregarCantidadExistente_TestD2Ev
FN:17,_ZN44InventarioTest_AgregarCantidadExistente_TestD0Ev
FNDA:2,_ZN44InventarioTest_AgregarCantidadExistente_TestD0Ev
FN:31,_ZN41InventarioTest_ReducirCantidadValida_TestC2Ev
FNDA:2,_ZN41InventarioTest_ReducirCantidadValida_TestC2Ev
FN:31,_ZN41InventarioTest_ReducirCantidadValida_TestD0Ev
FNDA:2,_ZN41InventarioTest_ReducirCantidadValida_TestD0Ev
FN:31,_ZN41InventarioTest_ReducirCantidadValida_TestD2Ev
FNDA:2,_ZN41InventarioTest_ReducirCantidadValida_TestD2Ev
FN:31,_ZN41InventarioTest_ReducirCantidadValida_Test8TestBodyEv
FNDA:2,_ZN41InventarioTest_ReducirCantidadValida_Test8TestBodyEv
FN:45,_ZN43InventarioTest_ReducirCantidadInvalida_Test8TestBodyEv
FNDA:2,_ZN43InventarioTest_ReducirCantidadInvalida_Test8TestBodyEv
FN:45,_ZN43InventarioTest_ReducirCantidadInvalida_TestD0Ev
FNDA:2,_ZN43InventarioTest_ReducirCantidadInvalida_TestD0Ev
FN:45,_ZN43InventarioTest_ReducirCantidadInvalida_TestD2Ev
FNDA:2,_ZN43InventarioTest_ReducirCantidadInvalida_TestD2Ev
FN:45,_ZN43InventarioTest_ReducirCantidadInvalida_TestC2Ev
FNDA:2,_ZN43InventarioTest_ReducirCantidadInvalida_TestC2Ev
FN:52,_ZN45InventarioTest_BuscarComponenteExistente_TestD0Ev
FNDA:2,_ZN45InventarioTest_BuscarComponenteExistente_TestD0Ev
FN:52,_ZN45InventarioTest_BuscarComponenteExistente_Test8TestBodyEv
FNDA:2,_ZN45InventarioTest_BuscarComponenteExistente_Test8TestBodyEv
FN:52,_ZN45InventarioTest_BuscarComponenteExistente_TestD2Ev
FNDA:2,_ZN45InventarioTest_BuscarComponenteExistente_TestD2Ev
FN:52,_ZN45InventarioTest_BuscarComponenteExistente_TestC2Ev
FNDA:2,_ZN45InventarioTest_BuscarComponenteExistente_TestC2Ev
FN:62,_ZN47InventarioTest_BuscarComponenteInexistente_TestD0Ev
FNDA:2,_ZN47InventarioTest_BuscarComponenteInexistente_TestD0Ev
FN:62,_ZN47InventarioTest_BuscarComponenteInexistente_TestD2Ev
FNDA:2,_ZN47InventarioTest_BuscarComponenteInexistente_TestD2Ev
FN:62,_ZN47InventarioTest_BuscarComponenteInexistente_TestC2Ev
FNDA:2,_ZN47InventarioTest_BuscarComponenteInexistente_TestC2Ev
FN:62,_ZN47InventarioTest_BuscarComponenteInexistente_Test8TestBodyEv
FNDA:2,_ZN47InventarioTest_BuscarComponenteInexistente_Test8TestBodyEv
FN:76,_ZN49InventarioTest_ListarComponentesConElementos_TestD0Ev
FNDA:2,_ZN49InventarioTest_ListarComponentesConElementos_TestD0Ev
FN:76,_ZN49InventarioTest_ListarComponentesConElementos_Test8TestBodyEv
FNDA:2,_ZN49InventarioTest_ListarComponentesConElementos_Test8TestBodyEv
FN:76,_ZN49InventarioTest_ListarComponentesConElementos_TestD2Ev
FNDA:2,_ZN49InventarioTest_ListarComponentesConElementos_TestD2Ev
FN:76,_ZN49InventarioTest_ListarComponentesConElementos_TestC2Ev
FNDA:2,_ZN49InventarioTest_ListarComponentesConElementos_TestC2Ev
FN:91,_ZN42InventarioTest_ListarComponentesVacia_Test8TestBodyEv
FNDA:2,_ZN42InventarioTest_ListarComponentesVacia_Test8TestBodyEv
FN:91,_ZN42InventarioTest_ListarComponentesVacia_TestD2Ev
FNDA:2,_ZN42InventarioTest_ListarComponentesVacia_TestD2Ev
FN:91,_ZN42InventarioTest_ListarComponentesVacia_TestD0Ev
FNDA:2,_ZN42InventarioTest_ListarComponentesVacia_TestD0Ev
FN:91,_ZN42InventarioTest_ListarComponentesVacia_TestC2Ev
FNDA:2,_ZN42InventarioTest_ListarComponentesVacia_TestC2Ev
DA:7,2
DA:7,2
DA:7,2
DA:7,2
DA:8,2
DA:9,2
DA:10,2
DA:11,2
DA:12,2
DA:13,2
DA:14,2
DA:17,2
DA:17,2
DA:17,2
DA:17,2
DA:18,2
DA:19,2
DA:20,2
DA:22,2
DA:23,2
DA:24,2
DA:27,2
DA:28,2
DA:31,2
DA:31,2
DA:31,2
DA:31,2
DA:32,2
DA:33,2
DA:34,2
DA:36,2
DA:37,2
DA:38,2
DA:41,2
DA:42,2
DA:45,2
DA:45,2
DA:45,2
DA:45,2
DA:46,2
DA:47,2
DA:48,6
DA:49,2
DA:52,2
DA:52,2
DA:52,2
DA:52,2
DA:53,2
DA:54,2
DA:55,2
DA:56,2
DA:57,2
DA:58,2
DA:59,2
DA:62,2
DA:62,2
DA:62,2
DA:62,2
DA:63,2
DA:64,2
DA:66,2
DA:67,2
DA:68,2
DA:71,2
DA:72,2
DA:76,2
DA:76,2
DA:76,2
DA:76,2
DA:77,2
DA:78,2
DA:79,2
DA:81,2
DA:82,2
DA:83,2
DA:86,2
DA:87,2
DA:88,2
DA:91,2
DA:91,2
DA:91,2
DA:91,2
DA:92,2
DA:94,2
DA:95,2
DA:96,2
DA:99,2
DA:100,2
end_of_record
SF:/usr/include/c++/11/tuple
FN:124,_ZNSt10_Head_baseILm1ESt14default_deleteINSt7__cxx1112basic_stringIcSt11char_traitsIcESaIcEEEELb1EE7_M_headERS8_
FNDA:0,_ZNSt10_Head_baseILm1ESt14default_deleteINSt7__cxx1112basic_stringIcSt11char_traitsIcESaIcEEEELb1EE7_M_headERS8_
FN:124,_ZNSt10_Head_baseILm1ESt14default_deleteINSt7__cxx1118basic_stringstreamIcSt11char_traitsIcESaIcEEEELb1EE7_M_headERS8_
FNDA:0,_ZNSt10_Head_baseILm1ESt14default_deleteINSt7__cxx1118basic_stringstreamIcSt11char_traitsIcESaIcEEEELb1EE7_M_headERS8_
FN:233,_ZNSt10_Head_baseILm0EPNSt7__cxx1112basic_stringIcSt11char_traitsIcESaIcEEELb0EE7_M_headERS7_
FNDA:16,_ZNSt10_Head_baseILm0EPNSt7__cxx1112basic_stringIcSt11char_traitsIcESaIcEEELb0EE7_M_headERS7_
FN:233,_ZNSt10_Head_baseILm0EPNSt7__cxx1118basic_stringstreamIcSt11char_traitsIcESaIcEEELb0EE7_M_headERS7_
FNDA:0,_ZNSt10_Head_baseILm0EPNSt7__cxx1118basic_stringstreamIcSt11char_traitsIcESaIcEEELb0EE7_M_headERS7_
FN:236,_ZNSt10_Head_baseILm0EPNSt7__cxx1118basic_stringstreamIcSt11char_traitsIcESaIcEEELb0EE7_M_headERKS7_
FNDA:0,_ZNSt10_Head_baseILm0EPNSt7__cxx1118basic_stringstreamIcSt11char_traitsIcESaIcEEELb0EE7_M_headERKS7_
FN:236,_ZNSt10_Head_baseILm0EPNSt7__cxx1112basic_stringIcSt11char_traitsIcESaIcEEELb0EE7_M_headERKS7_
FNDA:0,_ZNSt10_Head_baseILm0EPNSt7__cxx1112basic_stringIcSt11char_traitsIcESaIcEEELb0EE7_M_headERKS7_
FN:268,_ZNSt11_Tuple_implILm0EJPNSt7__cxx1112basic_stringIcSt11char_traitsIcESaIcEEESt14default_deleteIS5_EEE7_M_headERS9_
FNDA:16,_ZNSt11_Tuple_implILm0EJPNSt7__cxx1112basic_stringIcSt11char_traitsIcESaIcEEESt14default_deleteIS5_EEE7_M_headERS9_
FN:268,_ZNSt11_Tuple_implILm0EJPNSt7__cxx1118basic_stringstreamIcSt11char_traitsIcESaIcEEESt14default_deleteIS5_EEE7_M_headERS9_
FNDA:0,_ZNSt11_Tuple_implILm0EJPNSt7__cxx1118basic_stringstreamIcSt11char_traitsIcESaIcEEESt14default_deleteIS5_EEE7_M_headERS9_
FN:271,_ZNSt11_Tuple_implILm0EJPNSt7__cxx1118basic_stringstreamIcSt11char_traitsIcESaIcEEESt14default_deleteIS5_EEE7_M_headERKS9_
FNDA:0,_ZNSt11_Tuple_implILm0EJPNSt7__cxx1118basic_stringstreamIcSt11char_traitsIcESaIcEEESt14default_deleteIS5_EEE7_M_headERKS9_
FN:271,_ZNSt11_Tuple_implILm0EJPNSt7__cxx1112basic_stringIcSt11char_traitsIcESaIcEEESt14default_deleteIS5_EEE7_M_headERKS9_
FNDA:0,_ZNSt11_Tuple_implILm0EJPNSt7__cxx1112basic_stringIcSt11char_traitsIcESaIcEEESt14default_deleteIS5_EEE7_M_headERKS9_
FN:424,_ZNSt11_Tuple_implILm1EJSt14default_deleteINSt7__cxx1118basic_stringstreamIcSt11char_traitsIcESaIcEEEEEE7_M_headERS8_
FNDA:0,_ZNSt11_Tuple_implILm1EJSt14default_deleteINSt7__cxx1118basic_stringstreamIcSt11char_traitsIcESaIcEEEEEE7_M_headERS8_
FN:424,_ZNSt11_Tuple_implILm1EJSt14default_deleteINSt7__cxx1112basic_stringIcSt11char_traitsIcESaIcEEEEEE7_M_headERS8_
FNDA:0,_ZNSt11_Tuple_implILm1EJSt14default_deleteINSt7__cxx1112basic_stringIcSt11char_traitsIcESaIcEEEEEE7_M_headERS8_
FN:1377,_ZSt12__get_helperILm1ESt14default_deleteINSt7__cxx1112basic_stringIcSt11char_traitsIcESaIcEEEEJEERT0_RSt11_Tuple_implIXT_EJS8_DpT1_EE
FNDA:0,_ZSt12__get_helperILm1ESt14default_deleteINSt7__cxx1112basic_stringIcSt11char_traitsIcESaIcEEEEJEERT0_RSt11_Tuple_implIXT_EJS8_DpT1_EE
FN:1377,_ZSt12__get_helperILm1ESt14default_deleteINSt7__cxx1118basic_stringstreamIcSt11char_traitsIcESaIcEEEEJEERT0_RSt11_Tuple_implIXT_EJS8_DpT1_EE
FNDA:0,_ZSt12__get_helperILm1ESt14default_deleteINSt7__cxx1118basic_stringstreamIcSt11char_traitsIcESaIcEEEEJEERT0_RSt11_Tuple_implIXT_EJS8_DpT1_EE
FN:1377,_ZSt12__get_helperILm0EPNSt7__cxx1112basic_stringIcSt11char_traitsIcESaIcEEEJSt14default_deleteIS5_EEERT0_RSt11_Tuple_implIXT_EJS9_DpT1_EE
FNDA:16,_ZSt12__get_helperILm0EPNSt7__cxx1112basic_stringIcSt11char_traitsIcESaIcEEEJSt14default_deleteIS5_EEERT0_RSt11_Tuple_implIXT_EJS9_DpT1_EE
FN:1377,_ZSt12__get_helperILm0EPNSt7__cxx1118basic_stringstreamIcSt11char_traitsIcESaIcEEEJSt14default_deleteIS5_EEERT0_RSt11_Tuple_implIXT_EJS9_DpT1_EE
FNDA:0,_ZSt12__get_helperILm0EPNSt7__cxx1118basic_stringstreamIcSt11char_traitsIcESaIcEEEJSt14default_deleteIS5_EEERT0_RSt11_Tuple_implIXT_EJS9_DpT1_EE
FN:1382,_ZSt12__get_helperILm0EPNSt7__cxx1118basic_stringstreamIcSt11char_traitsIcESaIcEEEJSt14default_deleteIS5_EEERKT0_RKSt11_Tuple_implIXT_EJS9_DpT1_EE
FNDA:0,_ZSt12__get_helperILm0EPNSt7__cxx1118basic_stringstreamIcSt11char_traitsIcESaIcEEEJSt14default_deleteIS5_EEERKT0_RKSt11_Tuple_implIXT_EJS9_DpT1_EE
FN:1382,_ZSt12__get_helperILm0EPNSt7__cxx1112basic_stringIcSt11char_traitsIcESaIcEEEJSt14default_deleteIS5_EEERKT0_RKSt11_Tuple_implIXT_EJS9_DpT1_EE
FNDA:0,_ZSt12__get_helperILm0EPNSt7__cxx1112basic_stringIcSt11char_traitsIcESaIcEEEJSt14default_deleteIS5_EEERKT0_RKSt11_Tuple_implIXT_EJS9_DpT1_EE
FN:1393,_ZSt3getILm1EJPNSt7__cxx1118basic_stringstreamIcSt11char_traitsIcESaIcEEESt14default_deleteIS5_EEERNSt13tuple_elementIXT_ESt5tupleIJDpT0_EEE4typeERSD_
FNDA:0,_ZSt3getILm1EJPNSt7__cxx1118basic_stringstreamIcSt11char_traitsIcESaIcEEESt14default_deleteIS5_EEERNSt13tuple_elementIXT_ESt5tupleIJDpT0_EEE4typeERSD_
FN:1393,_ZSt3getILm1EJPNSt7__cxx1112basic_stringIcSt11char_traitsIcESaIcEEESt14default_deleteIS5_EEERNSt13tuple_elementIXT_ESt5tupleIJDpT0_EEE4typeERSD_
FNDA:0,_ZSt3getILm1EJPNSt7__cxx1112basic_stringIcSt11char_traitsIcESaIcEEESt14default_deleteIS5_EEERNSt13tuple_elementIXT_ESt5tupleIJDpT0_EEE4typeERSD_
FN:1393,_ZSt3getILm0EJPNSt7__cxx1112basic_stringIcSt11char_traitsIcESaIcEEESt14default_deleteIS5_EEERNSt13tuple_elementIXT_ESt5tupleIJDpT0_EEE4typeERSD_
FNDA:16,_ZSt3getILm0EJPNSt7__cxx1112basic_stringIcSt11char_traitsIcESaIcEEESt14default_deleteIS5_EEERNSt13tuple_elementIXT_ESt5tupleIJDpT0_EEE4typeERSD_
FN:1393,_ZSt3getILm0EJPNSt7__cxx1118basic_stringstreamIcSt11char_traitsIcESaIcEEESt14default_deleteIS5_EEERNSt13tuple_elementIXT_ESt5tupleIJDpT0_EEE4typeERSD_
FNDA:0,_ZSt3getILm0EJPNSt7__cxx1118basic_stringstreamIcSt11char_traitsIcESaIcEEESt14default_deleteIS5_EEERNSt13tuple_elementIXT_ESt5tupleIJDpT0_EEE4typeERSD_
FN:1399,_ZSt3getILm0EJPNSt7__cxx1118basic_stringstreamIcSt11char_traitsIcESaIcEEESt14default_deleteIS5_EEERKNSt13tuple_elementIXT_ESt5tupleIJDpT0_EEE4typeERKSD_
FNDA:0,_ZSt3getILm0EJPNSt7__cxx1118basic_stringstreamIcSt11char_traitsIcESaIcEEESt14default_deleteIS5_EEERKNSt13tuple_elementIXT_ESt5tupleIJDpT0_EEE4typeERKSD_
FN:1399,_ZSt3getILm0EJPNSt7__cxx1112basic_stringIcSt11char_traitsIcESaIcEEESt14default_deleteIS5_EEERKNSt13tuple_elementIXT_ESt5tupleIJDpT0_EEE4typeERKSD_
FNDA:0,_ZSt3getILm0EJPNSt7__cxx1112basic_stringIcSt11char_traitsIcESaIcEEESt14default_deleteIS5_EEERKNSt13tuple_elementIXT_ESt5tupleIJDpT0_EEE4typeERKSD_
DA:124,0
DA:124,0
DA:233,16
DA:233,0
DA:236,0
DA:236,0
DA:268,16
DA:268,0
DA:271,0
DA:271,0
DA:424,0
DA:424,0
DA:1377,0
DA:1378,0
DA:1377,0
DA:1378,0
DA:1377,16
DA:1378,16
DA:1377,0
DA:1378,0
DA:1382,0
DA:1383,0
DA:1382,0
DA:1383,0
DA:1393,0
DA:1394,0
DA:1393,0
DA:1394,0
DA:1393,16
DA:1394,16
DA:1393,0
DA:1394,0
DA:1399,0
DA:1400,0
DA:1399,0
DA:1400,0
end_of_record
SF:/usr/include/c++/11/bits/stl_iterator_base_funcs.h
FN:98,_ZSt10__distanceIPcENSt15iterator_traitsIT_E15difference_typeES2_S2_St26random_access_iterator_tag
FNDA:0,_ZSt10__distanceIPcENSt15iterator_traitsIT_E15difference_typeES2_S2_St26random_access_iterator_tag
FN:98,_ZSt10__distanceIPKcENSt15iterator_traitsIT_E15difference_typeES3_S3_St26random_access_iterator_tag
FNDA:78,_ZSt10__distanceIPKcENSt15iterator_traitsIT_E15difference_typeES3_S3_St26random_access_iterator_tag
FN:138,_ZSt8distanceIPcENSt15iterator_traitsIT_E15difference_typeES2_S2_
FNDA:0,_ZSt8distanceIPcENSt15iterator_traitsIT_E15difference_typeES2_S2_
FN:138,_ZSt8distanceIPKcENSt15iterator_traitsIT_E15difference_typeES3_S3_
FNDA:78,_ZSt8distanceIPKcENSt15iterator_traitsIT_E15difference_typeES3_S3_
DA:98,0
DA:104,0
DA:98,78
DA:104,78
DA:138,0
DA:141,0
DA:142,0
DA:138,78
DA:141,78
DA:142,156
end_of_record
SF:/usr/include/gtest/internal/gtest-internal.h
FN:454,_ZN7testing8internal15TestFactoryBaseD2Ev
FNDA:16,_ZN7testing8internal15TestFactoryBaseD2Ev
FN:454,_ZN7testing8internal15TestFactoryBaseD0Ev
FNDA:0,_ZN7testing8internal15TestFactoryBaseD0Ev
FN:461,_ZN7testing8internal15TestFactoryBaseC2Ev
FNDA:16,_ZN7testing8internal15TestFactoryBaseC2Ev
FN:472,_ZN7testing8internal15TestFactoryImplI44InventarioTest_AgregarCantidadExistente_TestE10CreateTestEv
FNDA:2,_ZN7testing8internal15TestFactoryImplI44InventarioTest_AgregarCantidadExistente_TestE10CreateTestEv
FN:472,_ZN7testing8internal15TestFactoryImplI42InventarioTest_ListarComponentesVacia_TestE10CreateTestEv
FNDA:2,_ZN7testing8internal15TestFactoryImplI42InventarioTest_ListarComponentesVacia_TestE10CreateTestEv
FN:472,_ZN7testing8internal15TestFactoryImplI49InventarioTest_ListarComponentesConElementos_TestE10CreateTestEv
FNDA:2,_ZN7testing8internal15TestFactoryImplI49InventarioTest_ListarComponentesConElementos_TestE10CreateTestEv
FN:472,_ZN7testing8internal15TestFactoryImplI47InventarioTest_BuscarComponenteInexistente_TestE10CreateTestEv
FNDA:2,_ZN7testing8internal15TestFactoryImplI47InventarioTest_BuscarComponenteInexistente_TestE10CreateTestEv
FN:472,_ZN7testing8internal15TestFactoryImplI45InventarioTest_BuscarComponenteExistente_TestE10CreateTestEv
FNDA:2,_ZN7testing8internal15TestFactoryImplI45InventarioTest_BuscarComponenteExistente_TestE10CreateTestEv
FN:472,_ZN7testing8internal15TestFactoryImplI43InventarioTest_ReducirCantidadInvalida_TestE10CreateTestEv
FNDA:2,_ZN7testing8internal15TestFactoryImplI43InventarioTest_ReducirCantidadInvalida_TestE10CreateTestEv
FN:472,_ZN7testing8internal15TestFactoryImplI41InventarioTest_ReducirCantidadValida_TestE10CreateTestEv
FNDA:2,_ZN7testing8internal15TestFactoryImplI41InventarioTest_ReducirCantidadValida_TestE10CreateTestEv
FN:472,_ZN7testing8internal15TestFactoryImplI42InventarioTest_AgregarComponenteNuevo_TestE10CreateTestEv
FNDA:2,_ZN7testing8internal15TestFactoryImplI42InventarioTest_AgregarComponenteNuevo_TestE10CreateTestEv
FN:493,_ZN7testing8internal12CodeLocationC2ERKNSt7__cxx1112basic_stringIcSt11char_traitsIcESaIcEEEi
FNDA:16,_ZN7testing8internal12CodeLocationC2ERKNSt7__cxx1112basic_stringIcSt11char_traitsIcESaIcEEEi
FN:506,_ZN7testing8internal19GetNotDefaultOrNullEPFvvES2_
FNDA:64,_ZN7testing8internal19GetNotDefaultOrNullEPFvvES2_
FN:521,_ZN7testing8internal16SuiteApiResolverINS_4TestEE19GetSetUpCaseOrSuiteEPKci
FNDA:16,_ZN7testing8internal16SuiteApiResolverINS_4TestEE19GetSetUpCaseOrSuiteEPKci
FN:542,_ZN7testing8internal16SuiteApiResolverINS_4TestEE22GetTearDownCaseOrSuiteEPKci
FNDA:16,_ZN7testing8internal16SuiteApiResolverINS_4TestEE22GetTearDownCaseOrSuiteEPKci
FN:858,_ZN7testing8internal14TrueWithStringC2Ev
FNDA:2,_ZN7testing8internal14TrueWithStringC2Ev
FN:861,_ZNK7testing8internal14TrueWithStringcvbEv
FNDA:2,_ZNK7testing8internal14TrueWithStringcvbEv
DA:454,0
DA:454,16
DA:461,16
DA:472,2
DA:472,2
DA:472,2
DA:472,2
DA:472,2
DA:472,2
DA:472,2
DA:472,2
DA:493,16
DA:494,16
DA:506,64
DA:508,64
DA:521,16
DA:525,16
DA:527,16
DA:529,16
DA:532,0
DA:534,16
DA:542,16
DA:546,16
DA:548,16
DA:550,16
DA:553,0
DA:555,16
DA:858,2
DA:861,2
end_of_record
SF:/usr/include/gtest/gtest-message.h
FN:113,_ZN7testing7MessagelsIA5_cEERS0_RKT_
FNDA:0,_ZN7testing7MessagelsIA5_cEERS0_RKT_
FN:113,_ZN7testing7MessagelsINSt7__cxx1112basic_stringIcSt11char_traitsIcESaIcEEEEERS0_RKT_
FNDA:0,_ZN7testing7MessagelsINSt7__cxx1112basic_stringIcSt11char_traitsIcESaIcEEEEERS0_RKT_
FN:113,_ZN7testing7MessagelsIA3_cEERS0_RKT_
FNDA:0,_ZN7testing7MessagelsIA3_cEERS0_RKT_
FN:113,_ZN7testing7MessagelsIA12_cEERS0_RKT_
FNDA:0,_ZN7testing7MessagelsIA12_cEERS0_RKT_
FN:147,_ZN7testing7MessagelsIKcEERS0_RKPT_
FNDA:0,_ZN7testing7MessagelsIKcEERS0_RKPT_
DA:113,0
DA:129,0
DA:130,0
DA:113,0
DA:129,0
DA:130,0
DA:113,0
DA:129,0
DA:130,0
DA:113,0
DA:129,0
DA:130,0
DA:147,0
DA:148,0
DA:149,0
DA:151,0
DA:153,0
end_of_record
SF:/usr/include/c++/11/bits/basic_string.h
FN:251,_ZNSt7__cxx1112basic_stringIcSt11char_traitsIcESaIcEE16_M_construct_auxIPcEEvT_S7_St12__false_type
FNDA:0,_ZNSt7__cxx1112basic_stringIcSt11char_traitsIcESaIcEE16_M_construct_auxIPcEEvT_S7_St12__false_type
FN:271,_ZNSt7__cxx1112basic_stringIcSt11char_traitsIcESaIcEE12_M_constructIPcEEvT_S7_
FNDA:0,_ZNSt7__cxx1112basic_stringIcSt11char_traitsIcESaIcEE12_M_constructIPcEEvT_S7_
FN:533,_ZNSt7__cxx1112basic_stringIcSt11char_traitsIcESaIcEEC2IS3_EEPKcRKS3_
FNDA:78,_ZNSt7__cxx1112basic_stringIcSt11char_traitsIcESaIcEEC2IS3_EEPKcRKS3_
DA:251,0
DA:255,0
DA:256,0
DA:271,0
DA:274,0
DA:275,0
DA:533,78
DA:534,78
DA:536,78
DA:539,78
DA:540,78
end_of_record
SF:/usr/include/c++/11/ext/new_allocator.h
FN:79,_ZN9__gnu_cxx13new_allocatorI10ComponenteEC2Ev
FNDA:16,_ZN9__gnu_cxx13new_allocatorI10ComponenteEC2Ev
FN:79,_ZN9__gnu_cxx13new_allocatorIcEC2Ev
FNDA:0,_ZN9__gnu_cxx13new_allocatorIcEC2Ev
FN:82,_ZN9__gnu_cxx13new_allocatorIcEC2ERKS1_
FNDA:0,_ZN9__gnu_cxx13new_allocatorIcEC2ERKS1_
FN:89,_ZN9__gnu_cxx13new_allocatorI10ComponenteED2Ev
FNDA:16,_ZN9__gnu_cxx13new_allocatorI10ComponenteED2Ev
FN:89,_ZN9__gnu_cxx13new_allocatorIcED2Ev
FNDA:0,_ZN9__gnu_cxx13new_allocatorIcED2Ev
FN:132,_ZN9__gnu_cxx13new_allocatorI10ComponenteE10deallocateEPS1_m
FNDA:16,_ZN9__gnu_cxx13new_allocatorI10ComponenteE10deallocateEPS1_m
DA:79,16
DA:79,0
DA:82,0
DA:89,16
DA:89,0
DA:132,16
DA:145,16
end_of_record
SF:/usr/include/c++/11/bits/basic_string.tcc
FN:206,_ZNSt7__cxx1112basic_stringIcSt11char_traitsIcESaIcEE12_M_constructIPcEEvT_S7_St20forward_iterator_tag
FNDA:0,_ZNSt7__cxx1112basic_stringIcSt11char_traitsIcESaIcEE12_M_constructIPcEEvT_S7_St20forward_iterator_tag
FN:206,_ZNSt7__cxx1112basic_stringIcSt11char_traitsIcESaIcEE12_M_constructIPKcEEvT_S8_St20forward_iterator_tag
FNDA:78,_ZNSt7__cxx1112basic_stringIcSt11char_traitsIcESaIcEE12_M_constructIPKcEEvT_S8_St20forward_iterator_tag
DA:206,0
DA:211,0
DA:212,0
DA:215,0
DA:217,0
DA:219,0
DA:220,0
DA:225,0
DA:226,0
DA:228,0
DA:229,0
DA:232,0
DA:233,0
DA:206,78
DA:211,78
DA:212,0
DA:215,78
DA:217,78
DA:219,34
DA:220,34
DA:225,78
DA:226,0
DA:228,0
DA:229,0
DA:232,78
DA:233,78
end_of_record
SF:/usr/include/c++/11/bits/char_traits.h
FN:106,_ZN9__gnu_cxx11char_traitsIcE2eqERKcS3_
FNDA:0,_ZN9__gnu_cxx11char_traitsIcE2eqERKcS3_
FN:167,_ZN9__gnu_cxx11char_traitsIcE6lengthEPKc
FNDA:0,_ZN9__gnu_cxx11char_traitsIcE6lengthEPKc
FN:393,_ZNSt11char_traitsIcE6lengthEPKc
FNDA:78,_ZNSt11char_traitsIcE6lengthEPKc
FN:429,_ZNSt11char_traitsIcE4copyEPcPKcm
FNDA:0,_ZNSt11char_traitsIcE4copyEPcPKcm
DA:106,0
DA:107,0
DA:167,0
DA:170,0
DA:171,0
DA:172,0
DA:173,0
DA:290,78
DA:393,78
DA:396,78
DA:397,0
DA:399,78
DA:429,0
DA:431,0
DA:432,0
DA:437,0
end_of_record
SF:/usr/include/c++/11/bits/alloc_traits.h
FN:495,_ZNSt16allocator_traitsISaI10ComponenteEE10deallocateERS1_PS0_m
FNDA:16,_ZNSt16allocator_traitsISaI10ComponenteEE10deallocateERS1_PS0_m
FN:562,_ZNSt16allocator_traitsISaIcEE37select_on_container_copy_constructionERKS0_
FNDA:0,_ZNSt16allocator_traitsISaIcEE37select_on_container_copy_constructionERKS0_
FN:845,_ZSt8_DestroyIP10ComponenteS0_EvT_S2_RSaIT0_E
FNDA:16,_ZSt8_DestroyIP10ComponenteS0_EvT_S2_RSaIT0_E
DA:495,16
DA:496,16
DA:562,0
DA:563,0
DA:845,16
DA:848,16
DA:849,16
end_of_record
TN:
SF:/usr/include/c++/11/ext/alloc_traits.h
FN:97,_ZN9__gnu_cxx14__alloc_traitsISaIcEcE17_S_select_on_copyERKS1_
FNDA:0,_ZN9__gnu_cxx14__alloc_traitsISaIcEcE17_S_select_on_copyERKS1_
DA:97,0
DA:98,0
end_of_record
SF:/usr/include/c++/11/bits/stl_algobase.h
FN:230,_ZSt3minImERKT_S2_S2_
FNDA:32,_ZSt3minImERKT_S2_S2_
FN:254,_ZSt3maxImERKT_S2_S2_
FNDA:16,_ZSt3maxImERKT_S2_S2_
FN:313,_ZSt12__niter_baseIP10ComponenteET_S2_
FNDA:96,_ZSt12__niter_baseIP10ComponenteET_S2_
DA:230,32
DA:235,32
DA:236,0
DA:237,32
DA:254,16
DA:259,16
DA:260,14
DA:261,2
DA:313,96
DA:315,96
end_of_record
SF:/usr/include/c++/11/bits/stl_iterator_base_funcs.h
FN:98,_ZSt10__distanceIPcENSt15iterator_traitsIT_E15difference_typeES2_S2_St26random_access_iterator_tag
FNDA:0,_ZSt10__distanceIPcENSt15iterator_traitsIT_E15difference_typeES2_S2_St26random_access_iterator_tag
FN:138,_ZSt8distanceIPcENSt15iterator_traitsIT_E15difference_typeES2_S2_
FNDA:0,_ZSt8distanceIPcENSt15iterator_traitsIT_E15difference_typeES2_S2_
DA:98,0
DA:104,0
DA:138,0
DA:141,0
DA:142,0
end_of_record
SF:/usr/include/c++/11/bits/basic_string.h
FN:251,_ZNSt7__cxx1112basic_stringIcSt11char_traitsIcESaIcEE16_M_construct_auxIPcEEvT_S7_St12__false_type
FNDA:0,_ZNSt7__cxx1112basic_stringIcSt11char_traitsIcESaIcEE16_M_construct_auxIPcEEvT_S7_St12__false_type
FN:271,_ZNSt7__cxx1112basic_stringIcSt11char_traitsIcESaIcEE12_M_constructIPcEEvT_S7_
FNDA:0,_ZNSt7__cxx1112basic_stringIcSt11char_traitsIcESaIcEE12_M_constructIPcEEvT_S7_
FN:6234,_ZSteqIcEN9__gnu_cxx11__enable_ifIXsrSt9__is_charIT_E7__valueEbE6__typeERKNSt7__cxx1112basic_stringIS3_St11char_traitsIS3_ESaIS3_EEESE_
FNDA:12,_ZSteqIcEN9__gnu_cxx11__enable_ifIXsrSt9__is_charIT_E7__valueEbE6__typeERKNSt7__cxx1112basic_stringIS3_St11char_traitsIS3_ESaIS3_EEESE_
DA:251,0
DA:255,0
DA:256,0
DA:271,0
DA:274,0
DA:275,0
DA:6234,12
DA:6236,12
DA:6237,12
DA:6238,12
end_of_record
SF:/usr/include/c++/11/ext/new_allocator.h
FN:82,_ZN9__gnu_cxx13new_allocatorIcEC2ERKS1_
FNDA:0,_ZN9__gnu_cxx13new_allocatorIcEC2ERKS1_
FN:89,_ZN9__gnu_cxx13new_allocatorIcED2Ev
FNDA:0,_ZN9__gnu_cxx13new_allocatorIcED2Ev
FN:103,_ZN9__gnu_cxx13new_allocatorI10ComponenteE8allocateEmPKv
FNDA:16,_ZN9__gnu_cxx13new_allocatorI10ComponenteE8allocateEmPKv
FN:132,_ZN9__gnu_cxx13new_allocatorI10ComponenteE10deallocateEPS1_m
FNDA:0,_ZN9__gnu_cxx13new_allocatorI10ComponenteE10deallocateEPS1_m
FN:154,_ZNK9__gnu_cxx13new_allocatorI10ComponenteE8max_sizeEv
FNDA:32,_ZNK9__gnu_cxx13new_allocatorI10ComponenteE8max_sizeEv
FN:160,_ZN9__gnu_cxx13new_allocatorI10ComponenteE9constructIS1_JS1_EEEvPT_DpOT0_
FNDA:2,_ZN9__gnu_cxx13new_allocatorI10ComponenteE9constructIS1_JS1_EEEvPT_DpOT0_
FN:160,_ZN9__gnu_cxx13new_allocatorI10ComponenteE9constructIS1_JRKNSt7__cxx1112basic_stringIcSt11char_traitsIcESaIcEEESB_RiSB_EEEvPT_DpOT0_
FNDA:16,_ZN9__gnu_cxx13new_allocatorI10ComponenteE9constructIS1_JRKNSt7__cxx1112basic_stringIcSt11char_traitsIcESaIcEEESB_RiSB_EEEvPT_DpOT0_
FN:166,_ZN9__gnu_cxx13new_allocatorI10ComponenteE7destroyIS1_EEvPT_
FNDA:2,_ZN9__gnu_cxx13new_allocatorI10ComponenteE7destroyIS1_EEvPT_
FN:197,_ZNK9__gnu_cxx13new_allocatorI10ComponenteE11_M_max_sizeEv
FNDA:48,_ZNK9__gnu_cxx13new_allocatorI10ComponenteE11_M_max_sizeEv
DA:82,0
DA:89,0
DA:103,16
DA:111,16
DA:115,0
DA:116,0
DA:117,0
DA:127,16
DA:132,0
DA:145,0
DA:154,32
DA:155,32
DA:160,2
DA:162,2
DA:160,16
DA:162,16
DA:166,2
DA:168,2
DA:197,48
DA:200,48
end_of_record
SF:/usr/include/c++/11/bits/stl_uninitialized.h
FN:986,_ZSt19__relocate_object_aI10ComponenteS0_SaIS0_EEvPT_PT0_RT1_
FNDA:2,_ZSt19__relocate_object_aI10ComponenteS0_SaIS0_EEvPT_PT0_RT1_
FN:1018,_ZSt14__relocate_a_1IP10ComponenteS1_SaIS0_EET0_T_S4_S3_RT1_
FNDA:32,_ZSt14__relocate_a_1IP10ComponenteS1_SaIS0_EET0_T_S4_S3_RT1_
FN:1040,_ZSt12__relocate_aIP10ComponenteS1_SaIS0_EET0_T_S4_S3_RT1_
FNDA:32,_ZSt12__relocate_aIP10ComponenteS1_SaIS0_EET0_T_S4_S3_RT1_
DA:986,2
DA:994,2
DA:995,2
DA:996,2
DA:1018,32
DA:1030,32
DA:1031,34
DA:1032,2
DA:1034,32
DA:1040,32
DA:1046,32
DA:1048,32
end_of_record
SF:/usr/include/c++/11/bits/char_traits.h
FN:364,_ZNSt11char_traitsIcE2ltERKcS2_
FNDA:0,_ZNSt11char_traitsIcE2ltERKcS2_
FN:372,_ZNSt11char_traitsIcE7compareEPKcS2_m
FNDA:8,_ZNSt11char_traitsIcE7compareEPKcS2_m
FN:429,_ZNSt11char_traitsIcE4copyEPcPKcm
FNDA:0,_ZNSt11char_traitsIcE4copyEPcPKcm
DA:364,0
DA:367,0
DA:368,0
DA:372,8
DA:374,8
DA:375,0
DA:377,8
DA:379,8
DA:381,0
DA:382,0
DA:383,0
DA:384,0
DA:385,0
DA:386,0
DA:389,8
DA:429,0
DA:431,0
DA:432,0
DA:437,0
end_of_record
SF:/usr/include/c++/11/bits/basic_string.tcc
FN:206,_ZNSt7__cxx1112basic_stringIcSt11char_traitsIcESaIcEE12_M_constructIPcEEvT_S7_St20forward_iterator_tag
FNDA:0,_ZNSt7__cxx1112basic_stringIcSt11char_traitsIcESaIcEE12_M_constructIPcEEvT_S7_St20forward_iterator_tag
DA:206,0
DA:211,0
DA:212,0
DA:215,0
DA:217,0
DA:219,0
DA:220,0
DA:225,0
DA:226,0
DA:228,0
DA:229,0
DA:232,0
DA:233,0
end_of_record
SF:/usr/include/c++/11/bits/alloc_traits.h
FN:463,_ZNSt16allocator_traitsISaI10ComponenteEE8allocateERS1_m
FNDA:16,_ZNSt16allocator_traitsISaI10ComponenteEE8allocateERS1_m
FN:495,_ZNSt16allocator_traitsISaI10ComponenteEE10deallocateERS1_PS0_m
FNDA:0,_ZNSt16allocator_traitsISaI10ComponenteEE10deallocateERS1_PS0_m
FN:511,_ZNSt16allocator_traitsISaI10ComponenteEE9constructIS0_JS0_EEEvRS1_PT_DpOT0_
FNDA:2,_ZNSt16allocator_traitsISaI10ComponenteEE9constructIS0_JS0_EEEvRS1_PT_DpOT0_
FN:511,_ZNSt16allocator_traitsISaI10ComponenteEE9constructIS0_JRKNSt7__cxx1112basic_stringIcSt11char_traitsIcESaIcEEESB_RiSB_EEEvRS1_PT_DpOT0_
FNDA:16,_ZNSt16allocator_traitsISaI10ComponenteEE9constructIS0_JRKNSt7__cxx1112basic_stringIcSt11char_traitsIcESaIcEEESB_RiSB_EEEvRS1_PT_DpOT0_
FN:531,_ZNSt16allocator_traitsISaI10ComponenteEE7destroyIS0_EEvRS1_PT_
FNDA:2,_ZNSt16allocator_traitsISaI10ComponenteEE7destroyIS0_EEvRS1_PT_
FN:547,_ZNSt16allocator_traitsISaI10ComponenteEE8max_sizeERKS1_
FNDA:32,_ZNSt16allocator_traitsISaI10ComponenteEE8max_sizeERKS1_
FN:562,_ZNSt16allocator_traitsISaIcEE37select_on_container_copy_constructionERKS0_
FNDA:0,_ZNSt16allocator_traitsISaIcEE37select_on_container_copy_constructionERKS0_
FN:845,_ZSt8_DestroyIP10ComponenteS0_EvT_S2_RSaIT0_E
FNDA:0,_ZSt8_DestroyIP10ComponenteS0_EvT_S2_RSaIT0_E
DA:463,16
DA:464,16
DA:495,0
DA:496,0
DA:511,2
DA:516,2
DA:520,2
DA:511,16
DA:516,16
DA:520,16
DA:531,2
DA:535,2
DA:539,2
DA:547,32
DA:550,32
DA:562,0
DA:563,0
DA:845,0
DA:848,0
DA:849,0
end_of_record
SF:/home/diego/ie0217/repo/ie0217/Tarea7/src/inventario.cpp
FN:6,_ZN10ComponenteC2ERKNSt7__cxx1112basic_stringIcSt11char_traitsIcESaIcEEES7_iS7_
FNDA:16,_ZN10ComponenteC2ERKNSt7__cxx1112basic_stringIcSt11char_traitsIcESaIcEEES7_iS7_
FN:13,_ZN10Inventario17agregarComponenteERKNSt7__cxx1112basic_stringIcSt11char_traitsIcESaIcEEES7_iS7_
FNDA:18,_ZN10Inventario17agregarComponenteERKNSt7__cxx1112basic_stringIcSt11char_traitsIcESaIcEEES7_iS7_
FN:26,_ZN10Inventario17reducirComponenteERKNSt7__cxx1112basic_stringIcSt11char_traitsIcESaIcEEEi
FNDA:4,_ZN10Inventario17reducirComponenteERKNSt7__cxx1112basic_stringIcSt11char_traitsIcESaIcEEEi
FN:39,_ZNK10Inventario17listarComponentesEv
FNDA:10,_ZNK10Inventario17listarComponentesEv
FN:49,_ZN10Inventario16buscarComponenteERKNSt7__cxx1112basic_stringIcSt11char_traitsIcESaIcEEE
FNDA:4,_ZN10Inventario16buscarComponenteERKNSt7__cxx1112basic_stringIcSt11char_traitsIcESaIcEEE
DA:6,16
DA:7,16
DA:8,0
DA:10,16
DA:13,18
DA:15,20
DA:17,4
DA:18,2
DA:19,2
DA:23,16
DA:26,4
DA:28,4
DA:29,4
DA:30,4
DA:31,2
DA:32,2
DA:36,0
DA:39,10
DA:40,10
DA:41,2
DA:42,2
DA:44,18
DA:45,10
DA:49,4
DA:51,6
DA:53,4
DA:54,2
DA:55,2
DA:59,2
end_of_record
SF:/usr/include/c++/11/bits/stl_iterator_base_types.h
FN:238,_ZSt19__iterator_categoryIPcENSt15iterator_traitsIT_E17iterator_categoryERKS2_
FNDA:0,_ZSt19__iterator_categoryIPcENSt15iterator_traitsIT_E17iterator_categoryERKS2_
DA:238,0
DA:239,0
end_of_record
SF:/usr/include/c++/11/bits/stl_iterator.h
FN:1027,_ZN9__gnu_cxx17__normal_iteratorIPK10ComponenteSt6vectorIS1_SaIS1_EEEC2ERKS3_
FNDA:36,_ZN9__gnu_cxx17__normal_iteratorIPK10ComponenteSt6vectorIS1_SaIS1_EEEC2ERKS3_
FN:1027,_ZN9__gnu_cxx17__normal_iteratorIP10ComponenteSt6vectorIS1_SaIS1_EEEC2ERKS2_
FNDA:116,_ZN9__gnu_cxx17__normal_iteratorIP10ComponenteSt6vectorIS1_SaIS1_EEEC2ERKS2_
FN:1042,_ZNK9__gnu_cxx17__normal_iteratorIPK10ComponenteSt6vectorIS1_SaIS1_EEEdeEv
FNDA:10,_ZNK9__gnu_cxx17__normal_iteratorIPK10ComponenteSt6vectorIS1_SaIS1_EEEdeEv
FN:1042,_ZNK9__gnu_cxx17__normal_iteratorIP10ComponenteSt6vectorIS1_SaIS1_EEEdeEv
FNDA:28,_ZNK9__gnu_cxx17__normal_iteratorIP10ComponenteSt6vectorIS1_SaIS1_EEEdeEv
FN:1052,_ZN9__gnu_cxx17__normal_iteratorIPK10ComponenteSt6vectorIS1_SaIS1_EEEppEv
FNDA:10,_ZN9__gnu_cxx17__normal_iteratorIPK10ComponenteSt6vectorIS1_SaIS1_EEEppEv
FN:1052,_ZN9__gnu_cxx17__normal_iteratorIP10ComponenteSt6vectorIS1_SaIS1_EEEppEv
FNDA:4,_ZN9__gnu_cxx17__normal_iteratorIP10ComponenteSt6vectorIS1_SaIS1_EEEppEv
FN:1100,_ZNK9__gnu_cxx17__normal_iteratorIP10ComponenteSt6vectorIS1_SaIS1_EEEmiEl
FNDA:16,_ZNK9__gnu_cxx17__normal_iteratorIP10ComponenteSt6vectorIS1_SaIS1_EEEmiEl
FN:1105,_ZNK9__gnu_cxx17__normal_iteratorIPK10ComponenteSt6vectorIS1_SaIS1_EEE4baseEv
FNDA:56,_ZNK9__gnu_cxx17__normal_iteratorIPK10ComponenteSt6vectorIS1_SaIS1_EEE4baseEv
FN:1105,_ZNK9__gnu_cxx17__normal_iteratorIP10ComponenteSt6vectorIS1_SaIS1_EEE4baseEv
FNDA:124,_ZNK9__gnu_cxx17__normal_iteratorIP10ComponenteSt6vectorIS1_SaIS1_EEE4baseEv
FN:1163,_ZN9__gnu_cxxeqIPK10ComponenteSt6vectorIS1_SaIS1_EEEEbRKNS_17__normal_iteratorIT_T0_EESC_
FNDA:10,_ZN9__gnu_cxxeqIPK10ComponenteSt6vectorIS1_SaIS1_EEEEbRKNS_17__normal_iteratorIT_T0_EESC_
FN:1179,_ZN9__gnu_cxxneIPK10ComponenteSt6vectorIS1_SaIS1_EEEEbRKNS_17__normal_iteratorIT_T0_EESC_
FNDA:18,_ZN9__gnu_cxxneIPK10ComponenteSt6vectorIS1_SaIS1_EEEEbRKNS_17__normal_iteratorIT_T0_EESC_
FN:1179,_ZN9__gnu_cxxneIP10ComponenteSt6vectorIS1_SaIS1_EEEEbRKNS_17__normal_iteratorIT_T0_EESB_
FNDA:30,_ZN9__gnu_cxxneIP10ComponenteSt6vectorIS1_SaIS1_EEEEbRKNS_17__normal_iteratorIT_T0_EESB_
FN:1268,_ZN9__gnu_cxxmiIP10ComponenteSt6vectorIS1_SaIS1_EEEENS_17__normal_iteratorIT_T0_E15difference_typeERKS9_SC_
FNDA:16,_ZN9__gnu_cxxmiIP10ComponenteSt6vectorIS1_SaIS1_EEEENS_17__normal_iteratorIT_T0_E15difference_typeERKS9_SC_
DA:1027,36
DA:1028,36
DA:1027,116
DA:1028,116
DA:1042,10
DA:1043,10
DA:1042,28
DA:1043,28
DA:1052,10
DA:1054,10
DA:1055,10
DA:1052,4
DA:1054,4
DA:1055,4
DA:1100,16
DA:1101,16
DA:1105,56
DA:1106,56
DA:1105,124
DA:1106,124
DA:1163,10
DA:1166,10
DA:1179,18
DA:1182,18
DA:1179,30
DA:1182,30
DA:1268,16
DA:1271,16
end_of_record
SF:/usr/include/c++/11/ext/type_traits.h
FN:152,_ZN9__gnu_cxx17__is_null_pointerIcEEbPT_
FNDA:0,_ZN9__gnu_cxx17__is_null_pointerIcEEbPT_
DA:152,0
DA:153,0
end_of_record
SF:/home/diego/ie0217/repo/ie0217/Tarea7/src/inventario.hpp
end_of_record
SF:/usr/include/c++/11/bits/move.h
FN:49,_ZSt11__addressofI10ComponenteEPT_RS1_
FNDA:0,_ZSt11__addressofI10ComponenteEPT_RS1_
FN:77,_ZSt7forwardI10ComponenteEOT_RNSt16remove_referenceIS1_E4typeE
FNDA:4,_ZSt7forwardI10ComponenteEOT_RNSt16remove_referenceIS1_E4typeE
FN:77,_ZSt7forwardIRiEOT_RNSt16remove_referenceIS1_E4typeE
FNDA:64,_ZSt7forwardIRiEOT_RNSt16remove_referenceIS1_E4typeE
FN:77,_ZSt7forwardIRKNSt7__cxx1112basic_stringIcSt11char_traitsIcESaIcEEEEOT_RNSt16remove_referenceIS8_E4typeE
FNDA:192,_ZSt7forwardIRKNSt7__cxx1112basic_stringIcSt11char_traitsIcESaIcEEEEOT_RNSt16remove_referenceIS8_E4typeE
FN:104,_ZSt4moveIR10ComponenteEONSt16remove_referenceIT_E4typeEOS3_
FNDA:2,_ZSt4moveIR10ComponenteEONSt16remove_referenceIT_E4typeEOS3_
FN:104,_ZSt4moveIRSaIcEEONSt16remove_referenceIT_E4typeEOS3_
FNDA:0,_ZSt4moveIRSaIcEEONSt16remove_referenceIT_E4typeEOS3_
DA:49,0
DA:50,0
DA:77,4
DA:78,4
DA:77,64
DA:78,64
DA:77,192
DA:78,192
DA:104,2
DA:105,2
DA:104,0
DA:105,0
end_of_record
SF:/usr/include/c++/11/iostream
end_of_record
SF:/usr/include/c++/11/new
FN:174,_ZnwmPv
FNDA:18,_ZnwmPv
FN:180,_ZdlPvS_
FNDA:0,_ZdlPvS_
DA:174,18
DA:175,18
DA:180,0
end_of_record
SF:/usr/include/c++/11/bits/vector.tcc
FN:109,_ZNSt6vectorI10ComponenteSaIS0_EE12emplace_backIJRKNSt7__cxx1112basic_stringIcSt11char_traitsIcESaIcEEESB_RiSB_EEERS0_DpOT_
FNDA:16,_ZNSt6vectorI10ComponenteSaIS0_EE12emplace_backIJRKNSt7__cxx1112basic_stringIcSt11char_traitsIcESaIcEEESB_RiSB_EEERS0_DpOT_
FN:426,_ZNSt6vectorI10ComponenteSaIS0_EE17_M_realloc_insertIJRKNSt7__cxx1112basic_stringIcSt11char_traitsIcESaIcEEESB_RiSB_EEEvN9__gnu_cxx17__normal_iteratorIPS0_S2_EEDpOT_
FNDA:16,_ZNSt6vectorI10ComponenteSaIS0_EE17_M_realloc_insertIJRKNSt7__cxx1112basic_stringIcSt11char_traitsIcESaIcEEESB_RiSB_EEEvN9__gnu_cxx17__normal_iteratorIPS0_S2_EEDpOT_
DA:109,16
DA:112,16
DA:115,0
DA:117,0
DA:121,16
DA:123,16
DA:426,16
DA:436,16
DA:437,16
DA:438,16
DA:439,16
DA:440,16
DA:441,16
DA:449,16
DA:450,16
DA:456,16
DA:461,16
DA:462,16
DA:464,16
DA:466,16
DA:467,16
DA:485,0
DA:487,0
DA:488,0
DA:489,0
DA:491,0
DA:492,0
DA:493,0
DA:500,16
DA:501,16
DA:502,16
DA:503,16
DA:504,16
DA:505,16
end_of_record
SF:/usr/include/c++/11/bits/stl_construct.h
FN:146,_ZSt8_DestroyI10ComponenteEvPT_
FNDA:0,_ZSt8_DestroyI10ComponenteEvPT_
FN:160,_ZNSt12_Destroy_auxILb0EE9__destroyIP10ComponenteEEvT_S4_
FNDA:0,_ZNSt12_Destroy_auxILb0EE9__destroyIP10ComponenteEEvT_S4_
FN:182,_ZSt8_DestroyIP10ComponenteEvT_S2_
FNDA:0,_ZSt8_DestroyIP10ComponenteEvT_S2_
DA:146,0
DA:151,0
DA:153,0
DA:160,0
DA:162,0
DA:163,0
DA:164,0
DA:182,0
DA:196,0
DA:197,0
end_of_record
SF:/usr/include/c++/11/bits/stl_vector.h
FN:276,_ZNSt12_Vector_baseI10ComponenteSaIS0_EE19_M_get_Tp_allocatorEv
FNDA:0,_ZNSt12_Vector_baseI10ComponenteSaIS0_EE19_M_get_Tp_allocatorEv
FN:280,_ZNKSt12_Vector_baseI10ComponenteSaIS0_EE19_M_get_Tp_allocatorEv
FNDA:32,_ZNKSt12_Vector_baseI10ComponenteSaIS0_EE19_M_get_Tp_allocatorEv
FN:343,_ZNSt12_Vector_baseI10ComponenteSaIS0_EE11_M_allocateEm
FNDA:16,_ZNSt12_Vector_baseI10ComponenteSaIS0_EE11_M_allocateEm
FN:350,_ZNSt12_Vector_baseI10ComponenteSaIS0_EE13_M_deallocateEPS0_m
FNDA:0,_ZNSt12_Vector_baseI10ComponenteSaIS0_EE13_M_deallocateEPS0_m
FN:453,_ZNSt6vectorI10ComponenteSaIS0_EE14_S_do_relocateEPS0_S3_S3_RS1_St17integral_constantIbLb1EE
FNDA:32,_ZNSt6vectorI10ComponenteSaIS0_EE14_S_do_relocateEPS0_S3_S3_RS1_St17integral_constantIbLb1EE
FN:465,_ZNSt6vectorI10ComponenteSaIS0_EE11_S_relocateEPS0_S3_S3_RS1_
FNDA:32,_ZNSt6vectorI10ComponenteSaIS0_EE11_S_relocateEPS0_S3_S3_RS1_
FN:811,_ZNSt6vectorI10ComponenteSaIS0_EE5beginEv
FNDA:42,_ZNSt6vectorI10ComponenteSaIS0_EE5beginEv
FN:820,_ZNKSt6vectorI10ComponenteSaIS0_EE5beginEv
FNDA:18,_ZNKSt6vectorI10ComponenteSaIS0_EE5beginEv
FN:829,_ZNSt6vectorI10ComponenteSaIS0_EE3endEv
FNDA:58,_ZNSt6vectorI10ComponenteSaIS0_EE3endEv
FN:838,_ZNKSt6vectorI10ComponenteSaIS0_EE3endEv
FNDA:18,_ZNKSt6vectorI10ComponenteSaIS0_EE3endEv
FN:918,_ZNKSt6vectorI10ComponenteSaIS0_EE4sizeEv
FNDA:64,_ZNKSt6vectorI10ComponenteSaIS0_EE4sizeEv
FN:923,_ZNKSt6vectorI10ComponenteSaIS0_EE8max_sizeEv
FNDA:32,_ZNKSt6vectorI10ComponenteSaIS0_EE8max_sizeEv
FN:1007,_ZNKSt6vectorI10ComponenteSaIS0_EE5emptyEv
FNDA:10,_ZNKSt6vectorI10ComponenteSaIS0_EE5emptyEv
FN:1143,_ZNSt6vectorI10ComponenteSaIS0_EE4backEv
FNDA:16,_ZNSt6vectorI10ComponenteSaIS0_EE4backEv
FN:1756,_ZNKSt6vectorI10ComponenteSaIS0_EE12_M_check_lenEmPKc
FNDA:16,_ZNKSt6vectorI10ComponenteSaIS0_EE12_M_check_lenEmPKc
FN:1776,_ZNSt6vectorI10ComponenteSaIS0_EE11_S_max_sizeERKS1_
FNDA:32,_ZNSt6vectorI10ComponenteSaIS0_EE11_S_max_sizeERKS1_
DA:276,0
DA:277,0
DA:280,32
DA:281,32
DA:343,16
DA:346,16
DA:350,0
DA:353,0
DA:354,0
DA:355,0
DA:453,32
DA:456,32
DA:465,32
DA:469,32
DA:811,42
DA:812,42
DA:820,18
DA:821,18
DA:829,58
DA:830,58
DA:838,18
DA:839,18
DA:918,64
DA:919,64
DA:923,32
DA:924,32
DA:1007,10
DA:1008,10
DA:1143,16
DA:1146,16
DA:1756,16
DA:1758,16
DA:1759,0
DA:1761,16
DA:1762,16
DA:1776,32
DA:1781,32
DA:1783,32
DA:1784,32
end_of_record
TN:
SF:/usr/include/c++/11/bits/stl_iterator.h
FN:1027,_ZN9__gnu_cxx17__normal_iteratorIPKdSt6vectorIdSaIdEEEC2ERKS2_
FNDA:0,_ZN9__gnu_cxx17__normal_iteratorIPKdSt6vectorIdSaIdEEEC2ERKS2_
FN:1042,_ZNK9__gnu_cxx17__normal_iteratorIPKdSt6vectorIdSaIdEEEdeEv
FNDA:0,_ZNK9__gnu_cxx17__normal_iteratorIPKdSt6vectorIdSaIdEEEdeEv
FN:1052,_ZN9__gnu_cxx17__normal_iteratorIPKdSt6vectorIdSaIdEEEppEv
FNDA:0,_ZN9__gnu_cxx17__normal_iteratorIPKdSt6vectorIdSaIdEEEppEv
FN:1105,_ZNK9__gnu_cxx17__normal_iteratorIPKdSt6vectorIdSaIdEEE4baseEv
FNDA:0,_ZNK9__gnu_cxx17__normal_iteratorIPKdSt6vectorIdSaIdEEE4baseEv
FN:1163,_ZN9__gnu_cxxeqIPKdSt6vectorIdSaIdEEEEbRKNS_17__normal_iteratorIT_T0_EESB_
FNDA:0,_ZN9__gnu_cxxeqIPKdSt6vectorIdSaIdEEEEbRKNS_17__normal_iteratorIT_T0_EESB_
FN:1179,_ZN9__gnu_cxxneIPKdSt6vectorIdSaIdEEEEbRKNS_17__normal_iteratorIT_T0_EESB_
FNDA:0,_ZN9__gnu_cxxneIPKdSt6vectorIdSaIdEEEEbRKNS_17__normal_iteratorIT_T0_EESB_
DA:1027,0
DA:1028,0
DA:1042,0
DA:1043,0
DA:1052,0
DA:1054,0
DA:1055,0
DA:1105,0
DA:1106,0
DA:1163,0
DA:1166,0
DA:1179,0
DA:1182,0
end_of_record
SF:/usr/include/c++/11/bits/stl_vector.h
FN:820,_ZNKSt6vectorIdSaIdEE5beginEv
FNDA:0,_ZNKSt6vectorIdSaIdEE5beginEv
FN:838,_ZNKSt6vectorIdSaIdEE3endEv
FNDA:0,_ZNKSt6vectorIdSaIdEE3endEv
FN:1007,_ZNKSt6vectorIdSaIdEE5emptyEv
FNDA:0,_ZNKSt6vectorIdSaIdEE5emptyEv
DA:820,0
DA:821,0
DA:838,0
DA:839,0
DA:1007,0
DA:1008,0
end_of_record
SF:/usr/include/c++/11/iostream
end_of_record
SF:/usr/include/c++/11/bits/stl_numeric.h
FN:134,_ZSt10accumulateIN9__gnu_cxx17__normal_iteratorIPKdSt6vectorIdSaIdEEEEdET0_T_S9_S8_
FNDA:0,_ZSt10accumulateIN9__gnu_cxx17__normal_iteratorIPKdSt6vectorIdSaIdEEEEdET0_T_S9_S8_
DA:134,0
DA:140,0
DA:141,0
DA:142,0
end_of_record
SF:/home/diego/ie0217/repo/ie0217/Tarea7/src/calculos.cpp
FN:7,_ZN8Calculos14validarValoresERKSt6vectorIdSaIdEE
FNDA:0,_ZN8Calculos14validarValoresERKSt6vectorIdSaIdEE
FN:21,_ZN8Calculos16resistenciaSerieERKSt6vectorIdSaIdEE
FNDA:0,_ZN8Calculos16resistenciaSerieERKSt6vectorIdSaIdEE
FN:27,_ZN8Calculos19resistenciaParaleloERKSt6vectorIdSaIdEE
FNDA:0,_ZN8Calculos19resistenciaParaleloERKSt6vectorIdSaIdEE
FN:39,_ZN8Calculos17capacitanciaSerieERKSt6vectorIdSaIdEE
FNDA:0,_ZN8Calculos17capacitanciaSerieERKSt6vectorIdSaIdEE
FN:45,_ZN8Calculos20capacitanciaParaleloERKSt6vectorIdSaIdEE
FNDA:0,_ZN8Calculos20capacitanciaParaleloERKSt6vectorIdSaIdEE
FN:57,_ZN8Calculos16inductanciaSerieERKSt6vectorIdSaIdEE
FNDA:0,_ZN8Calculos16inductanciaSerieERKSt6vectorIdSaIdEE
FN:63,_ZN8Calculos19inductanciaParaleloERKSt6vectorIdSaIdEE
FNDA:0,_ZN8Calculos19inductanciaParaleloERKSt6vectorIdSaIdEE
DA:7,0
DA:8,0
DA:9,0
DA:13,0
DA:14,0
DA:15,0
DA:18,0
DA:21,0
DA:22,0
DA:24,0
DA:27,0
DA:28,0
DA:29,0
DA:31,0
DA:32,0
DA:34,0
DA:39,0
DA:40,0
DA:42,0
DA:45,0
DA:46,0
DA:47,0
DA:49,0
DA:50,0
DA:52,0
DA:57,0
DA:58,0
DA:60,0
DA:63,0
DA:64,0
DA:65,0
DA:67,0
DA:68,0
DA:70,0
end_of_record
TN:
SF:/usr/include/gtest/internal/gtest-internal.h
FN:298,_ZN7testing8internal13FloatingPointIdEC2ERKd
FNDA:6,_ZN7testing8internal13FloatingPointIdEC2ERKd
FN:325,_ZNK7testing8internal13FloatingPointIdE13exponent_bitsEv
FNDA:6,_ZNK7testing8internal13FloatingPointIdE13exponent_bitsEv
FN:328,_ZNK7testing8internal13FloatingPointIdE13fraction_bitsEv
FNDA:0,_ZNK7testing8internal13FloatingPointIdE13fraction_bitsEv
FN:334,_ZNK7testing8internal13FloatingPointIdE6is_nanEv
FNDA:6,_ZNK7testing8internal13FloatingPointIdE6is_nanEv
FN:346,_ZNK7testing8internal13FloatingPointIdE12AlmostEqualsERKS2_
FNDA:3,_ZNK7testing8internal13FloatingPointIdE12AlmostEqualsERKS2_
FN:377,_ZN7testing8internal13FloatingPointIdE24SignAndMagnitudeToBiasedERKm
FNDA:6,_ZN7testing8internal13FloatingPointIdE24SignAndMagnitudeToBiasedERKm
FN:389,_ZN7testing8internal13FloatingPointIdE38DistanceBetweenSignAndMagnitudeNumbersERKmS4_
FNDA:3,_ZN7testing8internal13FloatingPointIdE38DistanceBetweenSignAndMagnitudeNumbersERKmS4_
FN:454,_ZN7testing8internal15TestFactoryBaseD2Ev
FNDA:9,_ZN7testing8internal15TestFactoryBaseD2Ev
FN:454,_ZN7testing8internal15TestFactoryBaseD0Ev
FNDA:0,_ZN7testing8internal15TestFactoryBaseD0Ev
FN:461,_ZN7testing8internal15TestFactoryBaseC2Ev
FNDA:9,_ZN7testing8internal15TestFactoryBaseC2Ev
FN:472,_ZN7testing8internal15TestFactoryImplI49CalculosTest_ValoresNegativosLanzanExcepcion_TestE10CreateTestEv
FNDA:1,_ZN7testing8internal15TestFactoryImplI49CalculosTest_ValoresNegativosLanzanExcepcion_TestE10CreateTestEv
FN:472,_ZN7testing8internal15TestFactoryImplI42CalculosTest_ListaVaciaLanzaExcepcion_TestE10CreateTestEv
FNDA:1,_ZN7testing8internal15TestFactoryImplI42CalculosTest_ListaVaciaLanzaExcepcion_TestE10CreateTestEv
FN:472,_ZN7testing8internal15TestFactoryImplI40CalculosTest_InductanciaSerieValida_TestE10CreateTestEv
FNDA:1,_ZN7testing8internal15TestFactoryImplI40CalculosTest_InductanciaSerieValida_TestE10CreateTestEv
FN:472,_ZN7testing8internal15TestFactoryImplI43CalculosTest_InductanciaParalelaValida_TestE10CreateTestEv
FNDA:1,_ZN7testing8internal15TestFactoryImplI43CalculosTest_InductanciaParalelaValida_TestE10CreateTestEv
FN:472,_ZN7testing8internal15TestFactoryImplI46CalculosTest_CapacitanciaParalelaInvalida_TestE10CreateTestEv
FNDA:1,_ZN7testing8internal15TestFactoryImplI46CalculosTest_CapacitanciaParalelaInvalida_TestE10CreateTestEv
FN:472,_ZN7testing8internal15TestFactoryImplI44CalculosTest_CapacitanciaParalelaValida_TestE10CreateTestEv
FNDA:1,_ZN7testing8internal15TestFactoryImplI44CalculosTest_CapacitanciaParalelaValida_TestE10CreateTestEv
FN:472,_ZN7testing8internal15TestFactoryImplI41CalculosTest_CapacitanciaSerieValida_TestE10CreateTestEv
FNDA:1,_ZN7testing8internal15TestFactoryImplI41CalculosTest_CapacitanciaSerieValida_TestE10CreateTestEv
FN:472,_ZN7testing8internal15TestFactoryImplI43CalculosTest_ResistenciaParaleloValida_TestE10CreateTestEv
FNDA:1,_ZN7testing8internal15TestFactoryImplI43CalculosTest_ResistenciaParaleloValida_TestE10CreateTestEv
FN:472,_ZN7testing8internal15TestFactoryImplI40CalculosTest_ResistenciaSerieValida_TestE10CreateTestEv
FNDA:1,_ZN7testing8internal15TestFactoryImplI40CalculosTest_ResistenciaSerieValida_TestE10CreateTestEv
FN:493,_ZN7testing8internal12CodeLocationC2ERKNSt7__cxx1112basic_stringIcSt11char_traitsIcESaIcEEEi
FNDA:9,_ZN7testing8internal12CodeLocationC2ERKNSt7__cxx1112basic_stringIcSt11char_traitsIcESaIcEEEi
FN:506,_ZN7testing8internal19GetNotDefaultOrNullEPFvvES2_
FNDA:36,_ZN7testing8internal19GetNotDefaultOrNullEPFvvES2_
FN:521,_ZN7testing8internal16SuiteApiResolverINS_4TestEE19GetSetUpCaseOrSuiteEPKci
FNDA:9,_ZN7testing8internal16SuiteApiResolverINS_4TestEE19GetSetUpCaseOrSuiteEPKci
FN:542,_ZN7testing8internal16SuiteApiResolverINS_4TestEE22GetTearDownCaseOrSuiteEPKci
FNDA:9,_ZN7testing8internal16SuiteApiResolverINS_4TestEE22GetTearDownCaseOrSuiteEPKci
FN:858,_ZN7testing8internal14TrueWithStringC2Ev
FNDA:3,_ZN7testing8internal14TrueWithStringC2Ev
FN:861,_ZNK7testing8internal14TrueWithStringcvbEv
FNDA:3,_ZNK7testing8internal14TrueWithStringcvbEv
DA:298,6
DA:325,6
DA:328,0
DA:334,6
DA:337,6
DA:346,3
DA:349,3
DA:351,3
DA:352,3
DA:377,6
DA:378,6
DA:380,0
DA:383,6
DA:389,3
DA:391,3
DA:392,3
DA:393,3
DA:454,0
DA:454,9
DA:461,9
DA:472,1
DA:472,1
DA:472,1
DA:472,1
DA:472,1
DA:472,1
DA:472,1
DA:472,1
DA:472,1
DA:493,9
DA:494,9
DA:506,36
DA:508,36
DA:521,9
DA:525,9
DA:527,9
DA:529,9
DA:532,0
DA:534,9
DA:542,9
DA:546,9
DA:548,9
DA:550,9
DA:553,0
DA:555,9
DA:858,3
DA:861,3
end_of_record
SF:/usr/include/gtest/gtest-message.h
end_of_record
SF:/usr/include/c++/11/bits/stl_iterator_base_funcs.h
FN:98,_ZSt10__distanceIPcENSt15iterator_traitsIT_E15difference_typeES2_S2_St26random_access_iterator_tag
FNDA:0,_ZSt10__distanceIPcENSt15iterator_traitsIT_E15difference_typeES2_S2_St26random_access_iterator_tag
FN:98,_ZSt10__distanceIPKdENSt15iterator_traitsIT_E15difference_typeES3_S3_St26random_access_iterator_tag
FNDA:8,_ZSt10__distanceIPKdENSt15iterator_traitsIT_E15difference_typeES3_S3_St26random_access_iterator_tag
FN:98,_ZSt10__distanceIPKcENSt15iterator_traitsIT_E15difference_typeES3_S3_St26random_access_iterator_tag
FNDA:9,_ZSt10__distanceIPKcENSt15iterator_traitsIT_E15difference_typeES3_S3_St26random_access_iterator_tag
FN:138,_ZSt8distanceIPcENSt15iterator_traitsIT_E15difference_typeES2_S2_
FNDA:0,_ZSt8distanceIPcENSt15iterator_traitsIT_E15difference_typeES2_S2_
FN:138,_ZSt8distanceIPKdENSt15iterator_traitsIT_E15difference_typeES3_S3_
FNDA:8,_ZSt8distanceIPKdENSt15iterator_traitsIT_E15difference_typeES3_S3_
FN:138,_ZSt8distanceIPKcENSt15iterator_traitsIT_E15difference_typeES3_S3_
FNDA:9,_ZSt8distanceIPKcENSt15iterator_traitsIT_E15difference_typeES3_S3_
DA:98,0
DA:104,0
DA:98,8
DA:104,8
DA:98,9
DA:104,9
DA:138,0
DA:141,0
DA:142,0
DA:138,8
DA:141,8
DA:142,16
DA:138,9
DA:141,9
DA:142,18
end_of_record
SF:/usr/include/c++/11/ext/alloc_traits.h
FN:97,_ZN9__gnu_cxx14__alloc_traitsISaIcEcE17_S_select_on_copyERKS1_
FNDA:0,_ZN9__gnu_cxx14__alloc_traitsISaIcEcE17_S_select_on_copyERKS1_
DA:97,0
DA:98,0
end_of_record
SF:/usr/include/c++/11/iomanip
FN:195,_ZSt12setprecisioni
FNDA:0,_ZSt12setprecisioni
DA:195,0
DA:196,0
end_of_record
SF:/usr/include/c++/11/bits/stl_algobase.h
FN:230,_ZSt3minImERKT_S2_S2_
FNDA:8,_ZSt3minImERKT_S2_S2_
FN:313,_ZSt12__niter_baseIPdET_S1_
FNDA:8,_ZSt12__niter_baseIPdET_S1_
FN:313,_ZSt12__niter_baseIPKdET_S2_
FNDA:16,_ZSt12__niter_baseIPKdET_S2_
FN:335,_ZSt12__niter_wrapIPdET_RKS1_S1_
FNDA:8,_ZSt12__niter_wrapIPdET_RKS1_S1_
FN:420,_ZNSt11__copy_moveILb0ELb1ESt26random_access_iterator_tagE8__copy_mIdEEPT_PKS3_S6_S4_
FNDA:8,_ZNSt11__copy_moveILb0ELb1ESt26random_access_iterator_tagE8__copy_mIdEEPT_PKS3_S6_S4_
FN:486,_ZSt14__copy_move_a2ILb0EPKdPdET1_T0_S4_S3_
FNDA:8,_ZSt14__copy_move_a2ILb0EPKdPdET1_T0_S4_S3_
FN:521,_ZSt14__copy_move_a1ILb0EPKdPdET1_T0_S4_S3_
FNDA:8,_ZSt14__copy_move_a1ILb0EPKdPdET1_T0_S4_S3_
FN:527,_ZSt13__copy_move_aILb0EPKdPdET1_T0_S4_S3_
FNDA:8,_ZSt13__copy_move_aILb0EPKdPdET1_T0_S4_S3_
FN:611,_ZSt4copyIPKdPdET0_T_S4_S3_
FNDA:8,_ZSt4copyIPKdPdET0_T_S4_S3_
DA:230,8
DA:235,8
DA:236,0
DA:237,8
DA:313,8
DA:315,8
DA:313,16
DA:315,16
DA:335,8
DA:336,8
DA:420,8
DA:429,8
DA:430,8
DA:431,8
DA:432,8
DA:486,8
DA:495,8
DA:521,8
DA:522,8
DA:527,8
DA:529,8
DA:532,8
DA:611,8
DA:620,8
end_of_record
SF:/usr/include/c++/11/tuple
FN:124,_ZNSt10_Head_baseILm1ESt14default_deleteINSt7__cxx1118basic_stringstreamIcSt11char_traitsIcESaIcEEEELb1EE7_M_headERS8_
FNDA:0,_ZNSt10_Head_baseILm1ESt14default_deleteINSt7__cxx1118basic_stringstreamIcSt11char_traitsIcESaIcEEEELb1EE7_M_headERS8_
FN:124,_ZNSt10_Head_baseILm1ESt14default_deleteINSt7__cxx1112basic_stringIcSt11char_traitsIcESaIcEEEELb1EE7_M_headERS8_
FNDA:0,_ZNSt10_Head_baseILm1ESt14default_deleteINSt7__cxx1112basic_stringIcSt11char_traitsIcESaIcEEEELb1EE7_M_headERS8_
FN:233,_ZNSt10_Head_baseILm0EPNSt7__cxx1112basic_stringIcSt11char_traitsIcESaIcEEELb0EE7_M_headERS7_
FNDA:6,_ZNSt10_Head_baseILm0EPNSt7__cxx1112basic_stringIcSt11char_traitsIcESaIcEEELb0EE7_M_headERS7_
FN:233,_ZNSt10_Head_baseILm0EPNSt7__cxx1118basic_stringstreamIcSt11char_traitsIcESaIcEEELb0EE7_M_headERS7_
FNDA:0,_ZNSt10_Head_baseILm0EPNSt7__cxx1118basic_stringstreamIcSt11char_traitsIcESaIcEEELb0EE7_M_headERS7_
FN:236,_ZNSt10_Head_baseILm0EPNSt7__cxx1112basic_stringIcSt11char_traitsIcESaIcEEELb0EE7_M_headERKS7_
FNDA:0,_ZNSt10_Head_baseILm0EPNSt7__cxx1112basic_stringIcSt11char_traitsIcESaIcEEELb0EE7_M_headERKS7_
FN:268,_ZNSt11_Tuple_implILm0EJPNSt7__cxx1112basic_stringIcSt11char_traitsIcESaIcEEESt14default_deleteIS5_EEE7_M_headERS9_
FNDA:6,_ZNSt11_Tuple_implILm0EJPNSt7__cxx1112basic_stringIcSt11char_traitsIcESaIcEEESt14default_deleteIS5_EEE7_M_headERS9_
FN:268,_ZNSt11_Tuple_implILm0EJPNSt7__cxx1118basic_stringstreamIcSt11char_traitsIcESaIcEEESt14default_deleteIS5_EEE7_M_headERS9_
FNDA:0,_ZNSt11_Tuple_implILm0EJPNSt7__cxx1118basic_stringstreamIcSt11char_traitsIcESaIcEEESt14default_deleteIS5_EEE7_M_headERS9_
FN:271,_ZNSt11_Tuple_implILm0EJPNSt7__cxx1112basic_stringIcSt11char_traitsIcESaIcEEESt14default_deleteIS5_EEE7_M_headERKS9_
FNDA:0,_ZNSt11_Tuple_implILm0EJPNSt7__cxx1112basic_stringIcSt11char_traitsIcESaIcEEESt14default_deleteIS5_EEE7_M_headERKS9_
FN:424,_ZNSt11_Tuple_implILm1EJSt14default_deleteINSt7__cxx1112basic_stringIcSt11char_traitsIcESaIcEEEEEE7_M_headERS8_
FNDA:0,_ZNSt11_Tuple_implILm1EJSt14default_deleteINSt7__cxx1112basic_stringIcSt11char_traitsIcESaIcEEEEEE7_M_headERS8_
FN:424,_ZNSt11_Tuple_implILm1EJSt14default_deleteINSt7__cxx1118basic_stringstreamIcSt11char_traitsIcESaIcEEEEEE7_M_headERS8_
FNDA:0,_ZNSt11_Tuple_implILm1EJSt14default_deleteINSt7__cxx1118basic_stringstreamIcSt11char_traitsIcESaIcEEEEEE7_M_headERS8_
FN:1377,_ZSt12__get_helperILm1ESt14default_deleteINSt7__cxx1118basic_stringstreamIcSt11char_traitsIcESaIcEEEEJEERT0_RSt11_Tuple_implIXT_EJS8_DpT1_EE
FNDA:0,_ZSt12__get_helperILm1ESt14default_deleteINSt7__cxx1118basic_stringstreamIcSt11char_traitsIcESaIcEEEEJEERT0_RSt11_Tuple_implIXT_EJS8_DpT1_EE
FN:1377,_ZSt12__get_helperILm0EPNSt7__cxx1118basic_stringstreamIcSt11char_traitsIcESaIcEEEJSt14default_deleteIS5_EEERT0_RSt11_Tuple_implIXT_EJS9_DpT1_EE
FNDA:0,_ZSt12__get_helperILm0EPNSt7__cxx1118basic_stringstreamIcSt11char_traitsIcESaIcEEEJSt14default_deleteIS5_EEERT0_RSt11_Tuple_implIXT_EJS9_DpT1_EE
FN:1377,_ZSt12__get_helperILm0EPNSt7__cxx1112basic_stringIcSt11char_traitsIcESaIcEEEJSt14default_deleteIS5_EEERT0_RSt11_Tuple_implIXT_EJS9_DpT1_EE
FNDA:6,_ZSt12__get_helperILm0EPNSt7__cxx1112basic_stringIcSt11char_traitsIcESaIcEEEJSt14default_deleteIS5_EEERT0_RSt11_Tuple_implIXT_EJS9_DpT1_EE
FN:1377,_ZSt12__get_helperILm1ESt14default_deleteINSt7__cxx1112basic_stringIcSt11char_traitsIcESaIcEEEEJEERT0_RSt11_Tuple_implIXT_EJS8_DpT1_EE
FNDA:0,_ZSt12__get_helperILm1ESt14default_deleteINSt7__cxx1112basic_stringIcSt11char_traitsIcESaIcEEEEJEERT0_RSt11_Tuple_implIXT_EJS8_DpT1_EE
FN:1382,_ZSt12__get_helperILm0EPNSt7__cxx1112basic_stringIcSt11char_traitsIcESaIcEEEJSt14default_deleteIS5_EEERKT0_RKSt11_Tuple_implIXT_EJS9_DpT1_EE
FNDA:0,_ZSt12__get_helperILm0EPNSt7__cxx1112basic_stringIcSt11char_traitsIcESaIcEEEJSt14default_deleteIS5_EEERKT0_RKSt11_Tuple_implIXT_EJS9_DpT1_EE
FN:1393,_ZSt3getILm1EJPNSt7__cxx1112basic_stringIcSt11char_traitsIcESaIcEEESt14default_deleteIS5_EEERNSt13tuple_elementIXT_ESt5tupleIJDpT0_EEE4typeERSD_
FNDA:0,_ZSt3getILm1EJPNSt7__cxx1112basic_stringIcSt11char_traitsIcESaIcEEESt14default_deleteIS5_EEERNSt13tuple_elementIXT_ESt5tupleIJDpT0_EEE4typeERSD_
FN:1393,_ZSt3getILm1EJPNSt7__cxx1118basic_stringstreamIcSt11char_traitsIcESaIcEEESt14default_deleteIS5_EEERNSt13tuple_elementIXT_ESt5tupleIJDpT0_EEE4typeERSD_
FNDA:0,_ZSt3getILm1EJPNSt7__cxx1118basic_stringstreamIcSt11char_traitsIcESaIcEEESt14default_deleteIS5_EEERNSt13tuple_elementIXT_ESt5tupleIJDpT0_EEE4typeERSD_
FN:1393,_ZSt3getILm0EJPNSt7__cxx1112basic_stringIcSt11char_traitsIcESaIcEEESt14default_deleteIS5_EEERNSt13tuple_elementIXT_ESt5tupleIJDpT0_EEE4typeERSD_
FNDA:6,_ZSt3getILm0EJPNSt7__cxx1112basic_stringIcSt11char_traitsIcESaIcEEESt14default_deleteIS5_EEERNSt13tuple_elementIXT_ESt5tupleIJDpT0_EEE4typeERSD_
FN:1393,_ZSt3getILm0EJPNSt7__cxx1118basic_stringstreamIcSt11char_traitsIcESaIcEEESt14default_deleteIS5_EEERNSt13tuple_elementIXT_ESt5tupleIJDpT0_EEE4typeERSD_
FNDA:0,_ZSt3getILm0EJPNSt7__cxx1118basic_stringstreamIcSt11char_traitsIcESaIcEEESt14default_deleteIS5_EEERNSt13tuple_elementIXT_ESt5tupleIJDpT0_EEE4typeERSD_
FN:1399,_ZSt3getILm0EJPNSt7__cxx1112basic_stringIcSt11char_traitsIcESaIcEEESt14default_deleteIS5_EEERKNSt13tuple_elementIXT_ESt5tupleIJDpT0_EEE4typeERKSD_
FNDA:0,_ZSt3getILm0EJPNSt7__cxx1112basic_stringIcSt11char_traitsIcESaIcEEESt14default_deleteIS5_EEERKNSt13tuple_elementIXT_ESt5tupleIJDpT0_EEE4typeERKSD_
DA:124,0
DA:124,0
DA:233,6
DA:233,0
DA:236,0
DA:268,6
DA:268,0
DA:271,0
DA:424,0
DA:424,0
DA:1377,0
DA:1378,0
DA:1377,0
DA:1378,0
DA:1377,6
DA:1378,6
DA:1377,0
DA:1378,0
DA:1382,0
DA:1383,0
DA:1393,0
DA:1394,0
DA:1393,0
DA:1394,0
DA:1393,6
DA:1394,6
DA:1393,0
DA:1394,0
DA:1399,0
DA:1400,0
end_of_record
SF:/home/diego/ie0217/repo/ie0217/Tarea7/tests/testCalculos.cpp
FN:7,_ZN40CalculosTest_ResistenciaSerieValida_TestC2Ev
FNDA:1,_ZN40CalculosTest_ResistenciaSerieValida_TestC2Ev
FN:7,_ZN40CalculosTest_ResistenciaSerieValida_Test8TestBodyEv
FNDA:1,_ZN40CalculosTest_ResistenciaSerieValida_Test8TestBodyEv
FN:7,_ZN40CalculosTest_ResistenciaSerieValida_TestD2Ev
FNDA:1,_ZN40CalculosTest_ResistenciaSerieValida_TestD2Ev
FN:7,_ZN40CalculosTest_ResistenciaSerieValida_TestD0Ev
FNDA:1,_ZN40CalculosTest_ResistenciaSerieValida_TestD0Ev
FN:13,_ZN43CalculosTest_ResistenciaParaleloValida_TestC2Ev
FNDA:1,_ZN43CalculosTest_ResistenciaParaleloValida_TestC2Ev
FN:13,_ZN43CalculosTest_ResistenciaParaleloValida_Test8TestBodyEv
FNDA:1,_ZN43CalculosTest_ResistenciaParaleloValida_Test8TestBodyEv
FN:13,_ZN43CalculosTest_ResistenciaParaleloValida_TestD2Ev
FNDA:1,_ZN43CalculosTest_ResistenciaParaleloValida_TestD2Ev
FN:13,_ZN43CalculosTest_ResistenciaParaleloValida_TestD0Ev
FNDA:1,_ZN43CalculosTest_ResistenciaParaleloValida_TestD0Ev
FN:19,_ZN41CalculosTest_CapacitanciaSerieValida_TestC2Ev
FNDA:1,_ZN41CalculosTest_CapacitanciaSerieValida_TestC2Ev
FN:19,_ZN41CalculosTest_CapacitanciaSerieValida_TestD0Ev
FNDA:1,_ZN41CalculosTest_CapacitanciaSerieValida_TestD0Ev
FN:19,_ZN41CalculosTest_CapacitanciaSerieValida_TestD2Ev
FNDA:1,_ZN41CalculosTest_CapacitanciaSerieValida_TestD2Ev
FN:19,_ZN41CalculosTest_CapacitanciaSerieValida_Test8TestBodyEv
FNDA:1,_ZN41CalculosTest_CapacitanciaSerieValida_Test8TestBodyEv
FN:25,_ZN44CalculosTest_CapacitanciaParalelaValida_TestC2Ev
FNDA:1,_ZN44CalculosTest_CapacitanciaParalelaValida_TestC2Ev
FN:25,_ZN44CalculosTest_CapacitanciaParalelaValida_Test8TestBodyEv
FNDA:1,_ZN44CalculosTest_CapacitanciaParalelaValida_Test8TestBodyEv
FN:25,_ZN44CalculosTest_CapacitanciaParalelaValida_TestD0Ev
FNDA:1,_ZN44CalculosTest_CapacitanciaParalelaValida_TestD0Ev
FN:25,_ZN44CalculosTest_CapacitanciaParalelaValida_TestD2Ev
FNDA:1,_ZN44CalculosTest_CapacitanciaParalelaValida_TestD2Ev
FN:31,_ZN46CalculosTest_CapacitanciaParalelaInvalida_TestD0Ev
FNDA:1,_ZN46CalculosTest_CapacitanciaParalelaInvalida_TestD0Ev
FN:31,_ZN46CalculosTest_CapacitanciaParalelaInvalida_Test8TestBodyEv
FNDA:1,_ZN46CalculosTest_CapacitanciaParalelaInvalida_Test8TestBodyEv
FN:31,_ZN46CalculosTest_CapacitanciaParalelaInvalida_TestD2Ev
FNDA:1,_ZN46CalculosTest_CapacitanciaParalelaInvalida_TestD2Ev
FN:31,_ZN46CalculosTest_CapacitanciaParalelaInvalida_TestC2Ev
FNDA:1,_ZN46CalculosTest_CapacitanciaParalelaInvalida_TestC2Ev
FN:37,_ZN43CalculosTest_InductanciaParalelaValida_TestD0Ev
FNDA:1,_ZN43CalculosTest_InductanciaParalelaValida_TestD0Ev
FN:37,_ZN43CalculosTest_InductanciaParalelaValida_TestD2Ev
FNDA:1,_ZN43CalculosTest_InductanciaParalelaValida_TestD2Ev
FN:37,_ZN43CalculosTest_InductanciaParalelaValida_TestC2Ev
FNDA:1,_ZN43CalculosTest_InductanciaParalelaValida_TestC2Ev
FN:37,_ZN43CalculosTest_InductanciaParalelaValida_Test8TestBodyEv
FNDA:1,_ZN43CalculosTest_InductanciaParalelaValida_Test8TestBodyEv
FN:43,_ZN40CalculosTest_InductanciaSerieValida_TestD2Ev
FNDA:1,_ZN40CalculosTest_InductanciaSerieValida_TestD2Ev
FN:43,_ZN40CalculosTest_InductanciaSerieValida_Test8TestBodyEv
FNDA:1,_ZN40CalculosTest_InductanciaSerieValida_Test8TestBodyEv
FN:43,_ZN40CalculosTest_InductanciaSerieValida_TestD0Ev
FNDA:1,_ZN40CalculosTest_InductanciaSerieValida_TestD0Ev
FN:43,_ZN40CalculosTest_InductanciaSerieValida_TestC2Ev
FNDA:1,_ZN40CalculosTest_InductanciaSerieValida_TestC2Ev
FN:50,_ZN42CalculosTest_ListaVaciaLanzaExcepcion_Test8TestBodyEv
FNDA:1,_ZN42CalculosTest_ListaVaciaLanzaExcepcion_Test8TestBodyEv
FN:50,_ZN42CalculosTest_ListaVaciaLanzaExcepcion_TestD2Ev
FNDA:1,_ZN42CalculosTest_ListaVaciaLanzaExcepcion_TestD2Ev
FN:50,_ZN42CalculosTest_ListaVaciaLanzaExcepcion_TestD0Ev
FNDA:1,_ZN42CalculosTest_ListaVaciaLanzaExcepcion_TestD0Ev
FN:50,_ZN42CalculosTest_ListaVaciaLanzaExcepcion_TestC2Ev
FNDA:1,_ZN42CalculosTest_ListaVaciaLanzaExcepcion_TestC2Ev
FN:56,_ZN49CalculosTest_ValoresNegativosLanzanExcepcion_TestD2Ev
FNDA:1,_ZN49CalculosTest_ValoresNegativosLanzanExcepcion_TestD2Ev
FN:56,_ZN49CalculosTest_ValoresNegativosLanzanExcepcion_Test8TestBodyEv
FNDA:1,_ZN49CalculosTest_ValoresNegativosLanzanExcepcion_Test8TestBodyEv
FN:56,_ZN49CalculosTest_ValoresNegativosLanzanExcepcion_TestD0Ev
FNDA:1,_ZN49CalculosTest_ValoresNegativosLanzanExcepcion_TestD0Ev
FN:56,_ZN49CalculosTest_ValoresNegativosLanzanExcepcion_TestC2Ev
FNDA:1,_ZN49CalculosTest_ValoresNegativosLanzanExcepcion_TestC2Ev
DA:7,1
DA:7,1
DA:7,1
DA:7,1
DA:8,1
DA:9,1
DA:10,1
DA:13,1
DA:13,1
DA:13,1
DA:13,1
DA:14,1
DA:15,1
DA:16,1
DA:19,1
DA:19,1
DA:19,1
DA:19,1
DA:20,1
DA:21,1
DA:22,1
DA:25,1
DA:25,1
DA:25,1
DA:25,1
DA:26,1
DA:27,1
DA:28,1
DA:31,1
DA:31,1
DA:31,1
DA:31,1
DA:32,1
DA:33,1
DA:34,1
DA:37,1
DA:37,1
DA:37,1
DA:37,1
DA:38,1
DA:39,1
DA:40,1
DA:43,1
DA:43,1
DA:43,1
DA:43,1
DA:44,1
DA:45,1
DA:46,1
DA:50,1
DA:50,1
DA:50,1
DA:50,1
DA:51,1
DA:52,1
DA:53,1
DA:56,1
DA:56,1
DA:56,1
DA:56,1
DA:57,1
DA:58,1
DA:59,1
end_of_record
SF:/usr/include/c++/11/bits/basic_string.tcc
FN:206,_ZNSt7__cxx1112basic_stringIcSt11char_traitsIcESaIcEE12_M_constructIPcEEvT_S7_St20forward_iterator_tag
FNDA:0,_ZNSt7__cxx1112basic_stringIcSt11char_traitsIcESaIcEE12_M_constructIPcEEvT_S7_St20forward_iterator_tag
FN:206,_ZNSt7__cxx1112basic_stringIcSt11char_traitsIcESaIcEE12_M_constructIPKcEEvT_S8_St20forward_iterator_tag
FNDA:9,_ZNSt7__cxx1112basic_stringIcSt11char_traitsIcESaIcEE12_M_constructIPKcEEvT_S8_St20forward_iterator_tag
DA:206,0
DA:211,0
DA:212,0
DA:215,0
DA:217,0
DA:219,0
DA:220,0
DA:225,0
DA:226,0
DA:228,0
DA:229,0
DA:232,0
DA:233,0
DA:206,9
DA:211,9
DA:212,0
DA:215,9
DA:217,9
DA:219,9
DA:220,9
DA:225,9
DA:226,0
DA:228,0
DA:229,0
DA:232,9
DA:233,9
end_of_record
SF:/usr/include/c++/11/bits/char_traits.h
FN:106,_ZN9__gnu_cxx11char_traitsIcE2eqERKcS3_
FNDA:0,_ZN9__gnu_cxx11char_traitsIcE2eqERKcS3_
FN:167,_ZN9__gnu_cxx11char_traitsIcE6lengthEPKc
FNDA:0,_ZN9__gnu_cxx11char_traitsIcE6lengthEPKc
FN:393,_ZNSt11char_traitsIcE6lengthEPKc
FNDA:9,_ZNSt11char_traitsIcE6lengthEPKc
FN:429,_ZNSt11char_traitsIcE4copyEPcPKcm
FNDA:0,_ZNSt11char_traitsIcE4copyEPcPKcm
DA:106,0
DA:107,0
DA:167,0
DA:170,0
DA:171,0
DA:172,0
DA:173,0
DA:290,9
DA:393,9
DA:396,9
DA:397,0
DA:399,9
DA:429,0
DA:431,0
DA:432,0
DA:437,0
end_of_record
SF:/usr/include/c++/11/bits/alloc_traits.h
FN:463,_ZNSt16allocator_traitsISaIdEE8allocateERS0_m
FNDA:8,_ZNSt16allocator_traitsISaIdEE8allocateERS0_m
FN:495,_ZNSt16allocator_traitsISaIdEE10deallocateERS0_Pdm
FNDA:8,_ZNSt16allocator_traitsISaIdEE10deallocateERS0_Pdm
FN:547,_ZNSt16allocator_traitsISaIdEE8max_sizeERKS0_
FNDA:8,_ZNSt16allocator_traitsISaIdEE8max_sizeERKS0_
FN:562,_ZNSt16allocator_traitsISaIcEE37select_on_container_copy_constructionERKS0_
FNDA:0,_ZNSt16allocator_traitsISaIcEE37select_on_container_copy_constructionERKS0_
FN:845,_ZSt8_DestroyIPddEvT_S1_RSaIT0_E
FNDA:9,_ZSt8_DestroyIPddEvT_S1_RSaIT0_E
DA:463,8
DA:464,8
DA:495,8
DA:496,8
DA:547,8
DA:550,8
DA:562,0
DA:563,0
DA:845,9
DA:848,9
DA:849,9
end_of_record
SF:/usr/include/c++/11/bits/basic_string.h
FN:251,_ZNSt7__cxx1112basic_stringIcSt11char_traitsIcESaIcEE16_M_construct_auxIPcEEvT_S7_St12__false_type
FNDA:0,_ZNSt7__cxx1112basic_stringIcSt11char_traitsIcESaIcEE16_M_construct_auxIPcEEvT_S7_St12__false_type
FN:271,_ZNSt7__cxx1112basic_stringIcSt11char_traitsIcESaIcEE12_M_constructIPcEEvT_S7_
FNDA:0,_ZNSt7__cxx1112basic_stringIcSt11char_traitsIcESaIcEE12_M_constructIPcEEvT_S7_
FN:533,_ZNSt7__cxx1112basic_stringIcSt11char_traitsIcESaIcEEC2IS3_EEPKcRKS3_
FNDA:9,_ZNSt7__cxx1112basic_stringIcSt11char_traitsIcESaIcEEC2IS3_EEPKcRKS3_
DA:251,0
DA:255,0
DA:256,0
DA:271,0
DA:274,0
DA:275,0
DA:533,9
DA:534,9
DA:536,9
DA:539,9
DA:540,9
end_of_record
SF:/usr/include/c++/11/ext/new_allocator.h
FN:79,_ZN9__gnu_cxx13new_allocatorIdEC2Ev
FNDA:9,_ZN9__gnu_cxx13new_allocatorIdEC2Ev
FN:79,_ZN9__gnu_cxx13new_allocatorIcEC2Ev
FNDA:0,_ZN9__gnu_cxx13new_allocatorIcEC2Ev
FN:82,_ZN9__gnu_cxx13new_allocatorIdEC2ERKS1_
FNDA:16,_ZN9__gnu_cxx13new_allocatorIdEC2ERKS1_
FN:82,_ZN9__gnu_cxx13new_allocatorIcEC2ERKS1_
FNDA:0,_ZN9__gnu_cxx13new_allocatorIcEC2ERKS1_
FN:89,_ZN9__gnu_cxx13new_allocatorIdED2Ev
FNDA:25,_ZN9__gnu_cxx13new_allocatorIdED2Ev
FN:89,_ZN9__gnu_cxx13new_allocatorIcED2Ev
FNDA:0,_ZN9__gnu_cxx13new_allocatorIcED2Ev
FN:103,_ZN9__gnu_cxx13new_allocatorIdE8allocateEmPKv
FNDA:8,_ZN9__gnu_cxx13new_allocatorIdE8allocateEmPKv
FN:132,_ZN9__gnu_cxx13new_allocatorIdE10deallocateEPdm
FNDA:8,_ZN9__gnu_cxx13new_allocatorIdE10deallocateEPdm
FN:154,_ZNK9__gnu_cxx13new_allocatorIdE8max_sizeEv
FNDA:8,_ZNK9__gnu_cxx13new_allocatorIdE8max_sizeEv
FN:197,_ZNK9__gnu_cxx13new_allocatorIdE11_M_max_sizeEv
FNDA:16,_ZNK9__gnu_cxx13new_allocatorIdE11_M_max_sizeEv
DA:79,9
DA:79,0
DA:82,16
DA:82,0
DA:89,25
DA:89,0
DA:103,8
DA:111,8
DA:115,0
DA:116,0
DA:117,0
DA:127,8
DA:132,8
DA:145,8
DA:154,8
DA:155,8
DA:197,16
DA:200,16
end_of_record
SF:/usr/include/c++/11/bits/stl_uninitialized.h
FN:108,_ZNSt20__uninitialized_copyILb1EE13__uninit_copyIPKdPdEET0_T_S6_S5_
FNDA:8,_ZNSt20__uninitialized_copyILb1EE13__uninit_copyIPKdPdEET0_T_S6_S5_
FN:126,_ZSt18uninitialized_copyIPKdPdET0_T_S4_S3_
FNDA:8,_ZSt18uninitialized_copyIPKdPdET0_T_S4_S3_
FN:331,_ZSt22__uninitialized_copy_aIPKdPddET0_T_S4_S3_RSaIT1_E
FNDA:8,_ZSt22__uninitialized_copy_aIPKdPddET0_T_S4_S3_RSaIT1_E
DA:108,8
DA:110,8
DA:126,8
DA:145,8
DA:151,8
DA:331,8
DA:333,8
end_of_record
SF:/usr/include/c++/11/ext/type_traits.h
FN:152,_ZN9__gnu_cxx17__is_null_pointerIcEEbPT_
FNDA:0,_ZN9__gnu_cxx17__is_null_pointerIcEEbPT_
FN:152,_ZN9__gnu_cxx17__is_null_pointerIKcEEbPT_
FNDA:9,_ZN9__gnu_cxx17__is_null_pointerIKcEEbPT_
DA:152,0
DA:153,0
DA:152,9
DA:153,9
end_of_record
SF:/usr/include/c++/11/initializer_list
FN:71,_ZNKSt16initializer_listIdE4sizeEv
FNDA:8,_ZNKSt16initializer_listIdE4sizeEv
FN:75,_ZNKSt16initializer_listIdE5beginEv
FNDA:16,_ZNKSt16initializer_listIdE5beginEv
FN:79,_ZNKSt16initializer_listIdE3endEv
FNDA:8,_ZNKSt16initializer_listIdE3endEv
DA:71,8
DA:75,16
DA:79,8
end_of_record
SF:/usr/include/c++/11/typeinfo
FN:99,_ZNKSt9type_info4nameEv
FNDA:0,_ZNKSt9type_info4nameEv
DA:99,0
DA:100,0
end_of_record
SF:/usr/include/gtest/internal/gtest-type-util.h
FN:55,_ZN7testing8internal31CanonicalizeForStdLibVersioningENSt7__cxx1112basic_stringIcSt11char_traitsIcESaIcEEE
FNDA:0,_ZN7testing8internal31CanonicalizeForStdLibVersioningENSt7__cxx1112basic_stringIcSt11char_traitsIcESaIcEEE
FN:69,_ZN7testing8internal11GetTypeNameB5cxx11ERKSt9type_info
FNDA:0,_ZN7testing8internal11GetTypeNameB5cxx11ERKSt9type_info
DA:55,0
DA:57,0
DA:58,0
DA:59,0
DA:61,0
DA:64,0
DA:69,0
DA:70,0
DA:72,0
DA:78,0
DA:79,0
DA:80,0
DA:81,0
DA:85,0
end_of_record
SF:/usr/include/c++/11/bits/cpp_type_traits.h
FN:560,_ZSt12__miter_baseIPKdET_S2_
FNDA:16,_ZSt12__miter_baseIPKdET_S2_
DA:560,16
DA:561,16
end_of_record
SF:/usr/include/c++/11/bits/stl_iterator_base_types.h
FN:238,_ZSt19__iterator_categoryIPcENSt15iterator_traitsIT_E17iterator_categoryERKS2_
FNDA:0,_ZSt19__iterator_categoryIPcENSt15iterator_traitsIT_E17iterator_categoryERKS2_
FN:238,_ZSt19__iterator_categoryIPKdENSt15iterator_traitsIT_E17iterator_categoryERKS3_
FNDA:8,_ZSt19__iterator_categoryIPKdENSt15iterator_traitsIT_E17iterator_categoryERKS3_
FN:238,_ZSt19__iterator_categoryIPKcENSt15iterator_traitsIT_E17iterator_categoryERKS3_
FNDA:9,_ZSt19__iterator_categoryIPKcENSt15iterator_traitsIT_E17iterator_categoryERKS3_
DA:238,0
DA:239,0
DA:238,8
DA:239,8
DA:238,9
DA:239,9
end_of_record
SF:/usr/include/c++/11/bits/unique_ptr.h
FN:79,_ZNKSt14default_deleteINSt7__cxx1112basic_stringIcSt11char_traitsIcESaIcEEEEclEPS5_
FNDA:0,_ZNKSt14default_deleteINSt7__cxx1112basic_stringIcSt11char_traitsIcESaIcEEEEclEPS5_
FN:79,_ZNKSt14default_deleteINSt7__cxx1118basic_stringstreamIcSt11char_traitsIcESaIcEEEEclEPS5_
FNDA:0,_ZNKSt14default_deleteINSt7__cxx1118basic_stringstreamIcSt11char_traitsIcESaIcEEEEclEPS5_
FN:172,_ZNSt15__uniq_ptr_implINSt7__cxx1112basic_stringIcSt11char_traitsIcESaIcEEESt14default_deleteIS5_EE6_M_ptrEv
FNDA:6,_ZNSt15__uniq_ptr_implINSt7__cxx1112basic_stringIcSt11char_traitsIcESaIcEEESt14default_deleteIS5_EE6_M_ptrEv
FN:172,_ZNSt15__uniq_ptr_implINSt7__cxx1118basic_stringstreamIcSt11char_traitsIcESaIcEEESt14default_deleteIS5_EE6_M_ptrEv
FNDA:0,_ZNSt15__uniq_ptr_implINSt7__cxx1118basic_stringstreamIcSt11char_traitsIcESaIcEEESt14default_deleteIS5_EE6_M_ptrEv
FN:173,_ZNKSt15__uniq_ptr_implINSt7__cxx1112basic_stringIcSt11char_traitsIcESaIcEEESt14default_deleteIS5_EE6_M_ptrEv
FNDA:0,_ZNKSt15__uniq_ptr_implINSt7__cxx1112basic_stringIcSt11char_traitsIcESaIcEEESt14default_deleteIS5_EE6_M_ptrEv
FN:174,_ZNSt15__uniq_ptr_implINSt7__cxx1112basic_stringIcSt11char_traitsIcESaIcEEESt14default_deleteIS5_EE10_M_deleterEv
FNDA:0,_ZNSt15__uniq_ptr_implINSt7__cxx1112basic_stringIcSt11char_traitsIcESaIcEEESt14default_deleteIS5_EE10_M_deleterEv
FN:174,_ZNSt15__uniq_ptr_implINSt7__cxx1118basic_stringstreamIcSt11char_traitsIcESaIcEEESt14default_deleteIS5_EE10_M_deleterEv
FNDA:0,_ZNSt15__uniq_ptr_implINSt7__cxx1118basic_stringstreamIcSt11char_traitsIcESaIcEEESt14default_deleteIS5_EE10_M_deleterEv
FN:355,_ZNSt10unique_ptrINSt7__cxx1112basic_stringIcSt11char_traitsIcESaIcEEESt14default_deleteIS5_EED2Ev
FNDA:6,_ZNSt10unique_ptrINSt7__cxx1112basic_stringIcSt11char_traitsIcESaIcEEESt14default_deleteIS5_EED2Ev
FN:355,_ZNSt10unique_ptrINSt7__cxx1118basic_stringstreamIcSt11char_traitsIcESaIcEEESt14default_deleteIS5_EED2Ev
FNDA:0,_ZNSt10unique_ptrINSt7__cxx1118basic_stringstreamIcSt11char_traitsIcESaIcEEESt14default_deleteIS5_EED2Ev
FN:413,_ZNKSt10unique_ptrINSt7__cxx1112basic_stringIcSt11char_traitsIcESaIcEEESt14default_deleteIS5_EEptEv
FNDA:0,_ZNKSt10unique_ptrINSt7__cxx1112basic_stringIcSt11char_traitsIcESaIcEEESt14default_deleteIS5_EEptEv
FN:421,_ZNKSt10unique_ptrINSt7__cxx1112basic_stringIcSt11char_traitsIcESaIcEEESt14default_deleteIS5_EE3getEv
FNDA:0,_ZNKSt10unique_ptrINSt7__cxx1112basic_stringIcSt11char_traitsIcESaIcEEESt14default_deleteIS5_EE3getEv
FN:426,_ZNSt10unique_ptrINSt7__cxx1112basic_stringIcSt11char_traitsIcESaIcEEESt14default_deleteIS5_EE11get_deleterEv
FNDA:0,_ZNSt10unique_ptrINSt7__cxx1112basic_stringIcSt11char_traitsIcESaIcEEESt14default_deleteIS5_EE11get_deleterEv
FN:426,_ZNSt10unique_ptrINSt7__cxx1118basic_stringstreamIcSt11char_traitsIcESaIcEEESt14default_deleteIS5_EE11get_deleterEv
FNDA:0,_ZNSt10unique_ptrINSt7__cxx1118basic_stringstreamIcSt11char_traitsIcESaIcEEESt14default_deleteIS5_EE11get_deleterEv
DA:79,0
DA:85,0
DA:86,0
DA:79,0
DA:85,0
DA:86,0
DA:172,6
DA:172,0
DA:173,0
DA:174,0
DA:174,0
DA:355,6
DA:359,6
DA:360,6
DA:361,0
DA:362,6
DA:363,6
DA:355,0
DA:359,0
DA:360,0
DA:361,0
DA:362,0
DA:363,0
DA:413,0
DA:416,0
DA:421,0
DA:422,0
DA:426,0
DA:427,0
DA:426,0
DA:427,0
end_of_record
SF:/usr/include/c++/11/bits/allocator.h
FN:156,_ZNSaIdEC2Ev
FNDA:9,_ZNSaIdEC2Ev
FN:159,_ZNSaIdEC2ERKS_
FNDA:16,_ZNSaIdEC2ERKS_
FN:174,_ZNSaIdED2Ev
FNDA:25,_ZNSaIdED2Ev
DA:156,9
DA:159,16
DA:160,16
DA:174,25
end_of_record
SF:/usr/include/c++/11/bits/stl_construct.h
FN:172,_ZNSt12_Destroy_auxILb1EE9__destroyIPdEEvT_S3_
FNDA:9,_ZNSt12_Destroy_auxILb1EE9__destroyIPdEEvT_S3_
FN:182,_ZSt8_DestroyIPdEvT_S1_
FNDA:9,_ZSt8_DestroyIPdEvT_S1_
DA:172,9
DA:182,9
DA:196,9
DA:197,9
end_of_record
SF:/usr/include/c++/11/bits/stl_vector.h
FN:97,_ZNSt12_Vector_baseIdSaIdEE17_Vector_impl_dataC2Ev
FNDA:9,_ZNSt12_Vector_baseIdSaIdEE17_Vector_impl_dataC2Ev
FN:131,_ZNSt12_Vector_baseIdSaIdEE12_Vector_implC2Ev
FNDA:1,_ZNSt12_Vector_baseIdSaIdEE12_Vector_implC2Ev
FN:136,_ZNSt12_Vector_baseIdSaIdEE12_Vector_implC2ERKS0_
FNDA:8,_ZNSt12_Vector_baseIdSaIdEE12_Vector_implC2ERKS0_
FN:276,_ZNSt12_Vector_baseIdSaIdEE19_M_get_Tp_allocatorEv
FNDA:25,_ZNSt12_Vector_baseIdSaIdEE19_M_get_Tp_allocatorEv
FN:288,_ZNSt12_Vector_baseIdSaIdEEC2Ev
FNDA:1,_ZNSt12_Vector_baseIdSaIdEEC2Ev
FN:293,_ZNSt12_Vector_baseIdSaIdEEC2ERKS0_
FNDA:8,_ZNSt12_Vector_baseIdSaIdEEC2ERKS0_
FN:333,_ZNSt12_Vector_baseIdSaIdEED2Ev
FNDA:9,_ZNSt12_Vector_baseIdSaIdEED2Ev
FN:343,_ZNSt12_Vector_baseIdSaIdEE11_M_allocateEm
FNDA:8,_ZNSt12_Vector_baseIdSaIdEE11_M_allocateEm
FN:350,_ZNSt12_Vector_baseIdSaIdEE13_M_deallocateEPdm
FNDA:9,_ZNSt12_Vector_baseIdSaIdEE13_M_deallocateEPdm
FN:487,_ZNSt6vectorIdSaIdEEC2Ev
FNDA:1,_ZNSt6vectorIdSaIdEEC2Ev
FN:625,_ZNSt6vectorIdSaIdEEC2ESt16initializer_listIdERKS0_
FNDA:8,_ZNSt6vectorIdSaIdEEC2ESt16initializer_listIdERKS0_
FN:678,_ZNSt6vectorIdSaIdEED2Ev
FNDA:9,_ZNSt6vectorIdSaIdEED2Ev
FN:1577,_ZNSt6vectorIdSaIdEE19_M_range_initializeIPKdEEvT_S5_St20forward_iterator_tag
FNDA:8,_ZNSt6vectorIdSaIdEE19_M_range_initializeIPKdEEvT_S5_St20forward_iterator_tag
FN:1767,_ZNSt6vectorIdSaIdEE17_S_check_init_lenEmRKS0_
FNDA:8,_ZNSt6vectorIdSaIdEE17_S_check_init_lenEmRKS0_
FN:1776,_ZNSt6vectorIdSaIdEE11_S_max_sizeERKS0_
FNDA:8,_ZNSt6vectorIdSaIdEE11_S_max_sizeERKS0_
DA:97,9
DA:98,9
DA:99,9
DA:131,1
DA:133,1
DA:134,1
DA:136,8
DA:137,8
DA:138,8
DA:276,25
DA:277,25
DA:288,1
DA:293,8
DA:294,8
DA:333,9
DA:335,9
DA:336,9
DA:337,9
DA:343,8
DA:346,8
DA:350,9
DA:353,9
DA:354,8
DA:355,9
DA:487,1
DA:625,8
DA:627,8
DA:629,8
DA:630,8
DA:631,8
DA:678,9
DA:680,9
DA:681,9
DA:683,9
DA:1577,8
DA:1580,8
DA:1582,8
DA:1583,8
DA:1584,8
DA:1585,8
DA:1587,8
DA:1588,8
DA:1767,8
DA:1769,8
DA:1770,0
DA:1772,8
DA:1776,8
DA:1781,8
DA:1783,8
DA:1784,8
end_of_record
SF:/usr/include/gtest/internal/gtest-port.h
FN:977,_ZN7testing8internal8GTestLog9GetStreamEv
FNDA:0,_ZN7testing8internal8GTestLog9GetStreamEv
DA:977,0
end_of_record
SF:/usr/include/c++/11/bits/move.h
FN:104,_ZSt4moveIRPNSt7__cxx1112basic_stringIcSt11char_traitsIcESaIcEEEEONSt16remove_referenceIT_E4typeEOS9_
FNDA:0,_ZSt4moveIRPNSt7__cxx1112basic_stringIcSt11char_traitsIcESaIcEEEEONSt16remove_referenceIT_E4typeEOS9_
FN:104,_ZSt4moveIRPNSt7__cxx1118basic_stringstreamIcSt11char_traitsIcESaIcEEEEONSt16remove_referenceIT_E4typeEOS9_
FNDA:0,_ZSt4moveIRPNSt7__cxx1118basic_stringstreamIcSt11char_traitsIcESaIcEEEEONSt16remove_referenceIT_E4typeEOS9_
FN:104,_ZSt4moveIRSaIcEEONSt16remove_referenceIT_E4typeEOS3_
FNDA:0,_ZSt4moveIRSaIcEEONSt16remove_referenceIT_E4typeEOS3_
DA:104,0
DA:105,0
DA:104,0
DA:105,0
DA:104,0
DA:105,0
end_of_record
SF:/usr/include/c++/11/iostream
end_of_record
SF:/usr/include/gtest/gtest.h
FN:324,_ZNK7testing15AssertionResultcvbEv
FNDA:6,_ZNK7testing15AssertionResultcvbEv
FN:333,_ZNK7testing15AssertionResult7messageEv
FNDA:0,_ZNK7testing15AssertionResult7messageEv
FN:337,_ZNK7testing15AssertionResult15failure_messageEv
FNDA:0,_ZNK7testing15AssertionResult15failure_messageEv
FN:427,_ZN7testing4Test14SetUpTestSuiteEv
FNDA:0,_ZN7testing4Test14SetUpTestSuiteEv
FN:435,_ZN7testing4Test17TearDownTestSuiteEv
FNDA:0,_ZN7testing4Test17TearDownTestSuiteEv
FN:440,_ZN7testing4Test16TearDownTestCaseEv
FNDA:0,_ZN7testing4Test16TearDownTestCaseEv
FN:441,_ZN7testing4Test13SetUpTestCaseEv
FNDA:0,_ZN7testing4Test13SetUpTestCaseEv
FN:522,_ZN7testing4Test5SetupEv
FNDA:0,_ZN7testing4Test5SetupEv
FN:1733,_ZN7testing8internal24CmpHelperFloatingPointEQIdEENS_15AssertionResultEPKcS4_T_S5_
FNDA:3,_ZN7testing8internal24CmpHelperFloatingPointEQIdEENS_15AssertionResultEPKcS4_T_S5_
DA:324,6
DA:333,0
DA:334,0
DA:337,0
DA:427,0
DA:435,0
DA:440,0
DA:441,0
DA:522,0
DA:1733,3
DA:1737,3
DA:1739,3
DA:1740,3
DA:1743,0
DA:1744,0
DA:1745,0
DA:1747,0
DA:1748,0
DA:1749,0
DA:1755,0
DA:1756,0
end_of_record
TN:
SF:/usr/include/c++/11/iostream
end_of_record
SF:/usr/include/c++/11/bits/move.h
FN:49,_ZSt11__addressofI10ComponenteEPT_RS1_
FNDA:0,_ZSt11__addressofI10ComponenteEPT_RS1_
FN:77,_ZSt7forwardI10ComponenteEOT_RNSt16remove_referenceIS1_E4typeE
FNDA:0,_ZSt7forwardI10ComponenteEOT_RNSt16remove_referenceIS1_E4typeE
FN:77,_ZSt7forwardIRiEOT_RNSt16remove_referenceIS1_E4typeE
FNDA:0,_ZSt7forwardIRiEOT_RNSt16remove_referenceIS1_E4typeE
FN:77,_ZSt7forwardIRKNSt7__cxx1112basic_stringIcSt11char_traitsIcESaIcEEEEOT_RNSt16remove_referenceIS8_E4typeE
FNDA:0,_ZSt7forwardIRKNSt7__cxx1112basic_stringIcSt11char_traitsIcESaIcEEEEOT_RNSt16remove_referenceIS8_E4typeE
FN:104,_ZSt4moveIR10ComponenteEONSt16remove_referenceIT_E4typeEOS3_
FNDA:0,_ZSt4moveIR10ComponenteEONSt16remove_referenceIT_E4typeEOS3_
FN:104,_ZSt4moveIRSaIcEEONSt16remove_referenceIT_E4typeEOS3_
FNDA:0,_ZSt4moveIRSaIcEEONSt16remove_referenceIT_E4typeEOS3_
DA:49,0
DA:50,0
DA:77,0
DA:78,0
DA:77,0
DA:78,0
DA:77,0
DA:78,0
DA:104,0
DA:105,0
DA:104,0
DA:105,0
end_of_record
SF:/usr/include/c++/11/new
FN:174,_ZnwmPv
FNDA:0,_ZnwmPv
FN:180,_ZdlPvS_
FNDA:0,_ZdlPvS_
DA:174,0
DA:175,0
DA:180,0
end_of_record
SF:/usr/include/c++/11/bits/stl_construct.h
FN:146,_ZSt8_DestroyI10ComponenteEvPT_
FNDA:0,_ZSt8_DestroyI10ComponenteEvPT_
FN:160,_ZNSt12_Destroy_auxILb0EE9__destroyIP10ComponenteEEvT_S4_
FNDA:0,_ZNSt12_Destroy_auxILb0EE9__destroyIP10ComponenteEEvT_S4_
FN:182,_ZSt8_DestroyIP10ComponenteEvT_S2_
FNDA:0,_ZSt8_DestroyIP10ComponenteEvT_S2_
DA:146,0
DA:151,0
DA:153,0
DA:160,0
DA:162,0
DA:163,0
DA:164,0
DA:182,0
DA:196,0
DA:197,0
end_of_record
SF:/usr/include/c++/11/bits/vector.tcc
FN:109,_ZNSt6vectorI10ComponenteSaIS0_EE12emplace_backIJRKNSt7__cxx1112basic_stringIcSt11char_traitsIcESaIcEEESB_RiSB_EEERS0_DpOT_
FNDA:0,_ZNSt6vectorI10ComponenteSaIS0_EE12emplace_backIJRKNSt7__cxx1112basic_stringIcSt11char_traitsIcESaIcEEESB_RiSB_EEERS0_DpOT_
FN:426,_ZNSt6vectorI10ComponenteSaIS0_EE17_M_realloc_insertIJRKNSt7__cxx1112basic_stringIcSt11char_traitsIcESaIcEEESB_RiSB_EEEvN9__gnu_cxx17__normal_iteratorIPS0_S2_EEDpOT_
FNDA:0,_ZNSt6vectorI10ComponenteSaIS0_EE17_M_realloc_insertIJRKNSt7__cxx1112basic_stringIcSt11char_traitsIcESaIcEEESB_RiSB_EEEvN9__gnu_cxx17__normal_iteratorIPS0_S2_EEDpOT_
DA:109,0
DA:112,0
DA:115,0
DA:117,0
DA:121,0
DA:123,0
DA:426,0
DA:436,0
DA:437,0
DA:438,0
DA:439,0
DA:440,0
DA:441,0
DA:449,0
DA:450,0
DA:456,0
DA:461,0
DA:462,0
DA:464,0
DA:466,0
DA:467,0
DA:485,0
DA:487,0
DA:488,0
DA:489,0
DA:491,0
DA:492,0
DA:493,0
DA:500,0
DA:501,0
DA:502,0
DA:503,0
DA:504,0
DA:505,0
end_of_record
SF:/usr/include/c++/11/bits/stl_vector.h
FN:276,_ZNSt12_Vector_baseI10ComponenteSaIS0_EE19_M_get_Tp_allocatorEv
FNDA:0,_ZNSt12_Vector_baseI10ComponenteSaIS0_EE19_M_get_Tp_allocatorEv
FN:280,_ZNKSt12_Vector_baseI10ComponenteSaIS0_EE19_M_get_Tp_allocatorEv
FNDA:0,_ZNKSt12_Vector_baseI10ComponenteSaIS0_EE19_M_get_Tp_allocatorEv
FN:343,_ZNSt12_Vector_baseI10ComponenteSaIS0_EE11_M_allocateEm
FNDA:0,_ZNSt12_Vector_baseI10ComponenteSaIS0_EE11_M_allocateEm
FN:350,_ZNSt12_Vector_baseI10ComponenteSaIS0_EE13_M_deallocateEPS0_m
FNDA:0,_ZNSt12_Vector_baseI10ComponenteSaIS0_EE13_M_deallocateEPS0_m
FN:453,_ZNSt6vectorI10ComponenteSaIS0_EE14_S_do_relocateEPS0_S3_S3_RS1_St17integral_constantIbLb1EE
FNDA:0,_ZNSt6vectorI10ComponenteSaIS0_EE14_S_do_relocateEPS0_S3_S3_RS1_St17integral_constantIbLb1EE
FN:465,_ZNSt6vectorI10ComponenteSaIS0_EE11_S_relocateEPS0_S3_S3_RS1_
FNDA:0,_ZNSt6vectorI10ComponenteSaIS0_EE11_S_relocateEPS0_S3_S3_RS1_
FN:811,_ZNSt6vectorI10ComponenteSaIS0_EE5beginEv
FNDA:0,_ZNSt6vectorI10ComponenteSaIS0_EE5beginEv
FN:820,_ZNKSt6vectorI10ComponenteSaIS0_EE5beginEv
FNDA:0,_ZNKSt6vectorI10ComponenteSaIS0_EE5beginEv
FN:829,_ZNSt6vectorI10ComponenteSaIS0_EE3endEv
FNDA:0,_ZNSt6vectorI10ComponenteSaIS0_EE3endEv
FN:838,_ZNKSt6vectorI10ComponenteSaIS0_EE3endEv
FNDA:0,_ZNKSt6vectorI10ComponenteSaIS0_EE3endEv
FN:918,_ZNKSt6vectorI10ComponenteSaIS0_EE4sizeEv
FNDA:0,_ZNKSt6vectorI10ComponenteSaIS0_EE4sizeEv
FN:923,_ZNKSt6vectorI10ComponenteSaIS0_EE8max_sizeEv
FNDA:0,_ZNKSt6vectorI10ComponenteSaIS0_EE8max_sizeEv
FN:1007,_ZNKSt6vectorI10ComponenteSaIS0_EE5emptyEv
FNDA:0,_ZNKSt6vectorI10ComponenteSaIS0_EE5emptyEv
FN:1143,_ZNSt6vectorI10ComponenteSaIS0_EE4backEv
FNDA:0,_ZNSt6vectorI10ComponenteSaIS0_EE4backEv
FN:1756,_ZNKSt6vectorI10ComponenteSaIS0_EE12_M_check_lenEmPKc
FNDA:0,_ZNKSt6vectorI10ComponenteSaIS0_EE12_M_check_lenEmPKc
FN:1776,_ZNSt6vectorI10ComponenteSaIS0_EE11_S_max_sizeERKS1_
FNDA:0,_ZNSt6vectorI10ComponenteSaIS0_EE11_S_max_sizeERKS1_
DA:276,0
DA:277,0
DA:280,0
DA:281,0
DA:343,0
DA:346,0
DA:350,0
DA:353,0
DA:354,0
DA:355,0
DA:453,0
DA:456,0
DA:465,0
DA:469,0
DA:811,0
DA:812,0
DA:820,0
DA:821,0
DA:829,0
DA:830,0
DA:838,0
DA:839,0
DA:918,0
DA:919,0
DA:923,0
DA:924,0
DA:1007,0
DA:1008,0
DA:1143,0
DA:1146,0
DA:1756,0
DA:1758,0
DA:1759,0
DA:1761,0
DA:1762,0
DA:1776,0
DA:1781,0
DA:1783,0
DA:1784,0
end_of_record
SF:/usr/include/c++/11/bits/stl_iterator_base_types.h
FN:238,_ZSt19__iterator_categoryIPcENSt15iterator_traitsIT_E17iterator_categoryERKS2_
FNDA:0,_ZSt19__iterator_categoryIPcENSt15iterator_traitsIT_E17iterator_categoryERKS2_
DA:238,0
DA:239,0
end_of_record
SF:/usr/include/c++/11/bits/stl_iterator.h
FN:1027,_ZN9__gnu_cxx17__normal_iteratorIPK10ComponenteSt6vectorIS1_SaIS1_EEEC2ERKS3_
FNDA:0,_ZN9__gnu_cxx17__normal_iteratorIPK10ComponenteSt6vectorIS1_SaIS1_EEEC2ERKS3_
FN:1027,_ZN9__gnu_cxx17__normal_iteratorIP10ComponenteSt6vectorIS1_SaIS1_EEEC2ERKS2_
FNDA:0,_ZN9__gnu_cxx17__normal_iteratorIP10ComponenteSt6vectorIS1_SaIS1_EEEC2ERKS2_
FN:1042,_ZNK9__gnu_cxx17__normal_iteratorIPK10ComponenteSt6vectorIS1_SaIS1_EEEdeEv
FNDA:0,_ZNK9__gnu_cxx17__normal_iteratorIPK10ComponenteSt6vectorIS1_SaIS1_EEEdeEv
FN:1042,_ZNK9__gnu_cxx17__normal_iteratorIP10ComponenteSt6vectorIS1_SaIS1_EEEdeEv
FNDA:0,_ZNK9__gnu_cxx17__normal_iteratorIP10ComponenteSt6vectorIS1_SaIS1_EEEdeEv
FN:1052,_ZN9__gnu_cxx17__normal_iteratorIPK10ComponenteSt6vectorIS1_SaIS1_EEEppEv
FNDA:0,_ZN9__gnu_cxx17__normal_iteratorIPK10ComponenteSt6vectorIS1_SaIS1_EEEppEv
FN:1052,_ZN9__gnu_cxx17__normal_iteratorIP10ComponenteSt6vectorIS1_SaIS1_EEEppEv
FNDA:0,_ZN9__gnu_cxx17__normal_iteratorIP10ComponenteSt6vectorIS1_SaIS1_EEEppEv
FN:1100,_ZNK9__gnu_cxx17__normal_iteratorIP10ComponenteSt6vectorIS1_SaIS1_EEEmiEl
FNDA:0,_ZNK9__gnu_cxx17__normal_iteratorIP10ComponenteSt6vectorIS1_SaIS1_EEEmiEl
FN:1105,_ZNK9__gnu_cxx17__normal_iteratorIPK10ComponenteSt6vectorIS1_SaIS1_EEE4baseEv
FNDA:0,_ZNK9__gnu_cxx17__normal_iteratorIPK10ComponenteSt6vectorIS1_SaIS1_EEE4baseEv
FN:1105,_ZNK9__gnu_cxx17__normal_iteratorIP10ComponenteSt6vectorIS1_SaIS1_EEE4baseEv
FNDA:0,_ZNK9__gnu_cxx17__normal_iteratorIP10ComponenteSt6vectorIS1_SaIS1_EEE4baseEv
FN:1163,_ZN9__gnu_cxxeqIPK10ComponenteSt6vectorIS1_SaIS1_EEEEbRKNS_17__normal_iteratorIT_T0_EESC_
FNDA:0,_ZN9__gnu_cxxeqIPK10ComponenteSt6vectorIS1_SaIS1_EEEEbRKNS_17__normal_iteratorIT_T0_EESC_
FN:1179,_ZN9__gnu_cxxneIPK10ComponenteSt6vectorIS1_SaIS1_EEEEbRKNS_17__normal_iteratorIT_T0_EESC_
FNDA:0,_ZN9__gnu_cxxneIPK10ComponenteSt6vectorIS1_SaIS1_EEEEbRKNS_17__normal_iteratorIT_T0_EESC_
FN:1179,_ZN9__gnu_cxxneIP10ComponenteSt6vectorIS1_SaIS1_EEEEbRKNS_17__normal_iteratorIT_T0_EESB_
FNDA:0,_ZN9__gnu_cxxneIP10ComponenteSt6vectorIS1_SaIS1_EEEEbRKNS_17__normal_iteratorIT_T0_EESB_
FN:1268,_ZN9__gnu_cxxmiIP10ComponenteSt6vectorIS1_SaIS1_EEEENS_17__normal_iteratorIT_T0_E15difference_typeERKS9_SC_
FNDA:0,_ZN9__gnu_cxxmiIP10ComponenteSt6vectorIS1_SaIS1_EEEENS_17__normal_iteratorIT_T0_E15difference_typeERKS9_SC_
DA:1027,0
DA:1028,0
DA:1027,0
DA:1028,0
DA:1042,0
DA:1043,0
DA:1042,0
DA:1043,0
DA:1052,0
DA:1054,0
DA:1055,0
DA:1052,0
DA:1054,0
DA:1055,0
DA:1100,0
DA:1101,0
DA:1105,0
DA:1106,0
DA:1105,0
DA:1106,0
DA:1163,0
DA:1166,0
DA:1179,0
DA:1182,0
DA:1179,0
DA:1182,0
DA:1268,0
DA:1271,0
end_of_record
SF:/usr/include/c++/11/ext/type_traits.h
FN:152,_ZN9__gnu_cxx17__is_null_pointerIcEEbPT_
FNDA:0,_ZN9__gnu_cxx17__is_null_pointerIcEEbPT_
DA:152,0
DA:153,0
end_of_record
SF:/home/diego/ie0217/repo/ie0217/Tarea7/src/inventario.hpp
end_of_record
SF:/usr/include/c++/11/ext/new_allocator.h
FN:82,_ZN9__gnu_cxx13new_allocatorIcEC2ERKS1_
FNDA:0,_ZN9__gnu_cxx13new_allocatorIcEC2ERKS1_
FN:89,_ZN9__gnu_cxx13new_allocatorIcED2Ev
FNDA:0,_ZN9__gnu_cxx13new_allocatorIcED2Ev
FN:103,_ZN9__gnu_cxx13new_allocatorI10ComponenteE8allocateEmPKv
FNDA:0,_ZN9__gnu_cxx13new_allocatorI10ComponenteE8allocateEmPKv
FN:132,_ZN9__gnu_cxx13new_allocatorI10ComponenteE10deallocateEPS1_m
FNDA:0,_ZN9__gnu_cxx13new_allocatorI10ComponenteE10deallocateEPS1_m
FN:154,_ZNK9__gnu_cxx13new_allocatorI10ComponenteE8max_sizeEv
FNDA:0,_ZNK9__gnu_cxx13new_allocatorI10ComponenteE8max_sizeEv
FN:160,_ZN9__gnu_cxx13new_allocatorI10ComponenteE9constructIS1_JS1_EEEvPT_DpOT0_
FNDA:0,_ZN9__gnu_cxx13new_allocatorI10ComponenteE9constructIS1_JS1_EEEvPT_DpOT0_
FN:160,_ZN9__gnu_cxx13new_allocatorI10ComponenteE9constructIS1_JRKNSt7__cxx1112basic_stringIcSt11char_traitsIcESaIcEEESB_RiSB_EEEvPT_DpOT0_
FNDA:0,_ZN9__gnu_cxx13new_allocatorI10ComponenteE9constructIS1_JRKNSt7__cxx1112basic_stringIcSt11char_traitsIcESaIcEEESB_RiSB_EEEvPT_DpOT0_
FN:166,_ZN9__gnu_cxx13new_allocatorI10ComponenteE7destroyIS1_EEvPT_
FNDA:0,_ZN9__gnu_cxx13new_allocatorI10ComponenteE7destroyIS1_EEvPT_
FN:197,_ZNK9__gnu_cxx13new_allocatorI10ComponenteE11_M_max_sizeEv
FNDA:0,_ZNK9__gnu_cxx13new_allocatorI10ComponenteE11_M_max_sizeEv
DA:82,0
DA:89,0
DA:103,0
DA:111,0
DA:115,0
DA:116,0
DA:117,0
DA:127,0
DA:132,0
DA:145,0
DA:154,0
DA:155,0
DA:160,0
DA:162,0
DA:160,0
DA:162,0
DA:166,0
DA:168,0
DA:197,0
DA:200,0
end_of_record
SF:/usr/include/c++/11/bits/basic_string.h
FN:251,_ZNSt7__cxx1112basic_stringIcSt11char_traitsIcESaIcEE16_M_construct_auxIPcEEvT_S7_St12__false_type
FNDA:0,_ZNSt7__cxx1112basic_stringIcSt11char_traitsIcESaIcEE16_M_construct_auxIPcEEvT_S7_St12__false_type
FN:271,_ZNSt7__cxx1112basic_stringIcSt11char_traitsIcESaIcEE12_M_constructIPcEEvT_S7_
FNDA:0,_ZNSt7__cxx1112basic_stringIcSt11char_traitsIcESaIcEE12_M_constructIPcEEvT_S7_
FN:6234,_ZSteqIcEN9__gnu_cxx11__enable_ifIXsrSt9__is_charIT_E7__valueEbE6__typeERKNSt7__cxx1112basic_stringIS3_St11char_traitsIS3_ESaIS3_EEESE_
FNDA:0,_ZSteqIcEN9__gnu_cxx11__enable_ifIXsrSt9__is_charIT_E7__valueEbE6__typeERKNSt7__cxx1112basic_stringIS3_St11char_traitsIS3_ESaIS3_EEESE_
DA:251,0
DA:255,0
DA:256,0
DA:271,0
DA:274,0
DA:275,0
DA:6234,0
DA:6236,0
DA:6237,0
DA:6238,0
end_of_record
SF:/usr/include/c++/11/bits/stl_uninitialized.h
FN:986,_ZSt19__relocate_object_aI10ComponenteS0_SaIS0_EEvPT_PT0_RT1_
FNDA:0,_ZSt19__relocate_object_aI10ComponenteS0_SaIS0_EEvPT_PT0_RT1_
FN:1018,_ZSt14__relocate_a_1IP10ComponenteS1_SaIS0_EET0_T_S4_S3_RT1_
FNDA:0,_ZSt14__relocate_a_1IP10ComponenteS1_SaIS0_EET0_T_S4_S3_RT1_
FN:1040,_ZSt12__relocate_aIP10ComponenteS1_SaIS0_EET0_T_S4_S3_RT1_
FNDA:0,_ZSt12__relocate_aIP10ComponenteS1_SaIS0_EET0_T_S4_S3_RT1_
DA:986,0
DA:994,0
DA:995,0
DA:996,0
DA:1018,0
DA:1030,0
DA:1031,0
DA:1032,0
DA:1034,0
DA:1040,0
DA:1046,0
DA:1048,0
end_of_record
SF:/usr/include/c++/11/bits/basic_string.tcc
FN:206,_ZNSt7__cxx1112basic_stringIcSt11char_traitsIcESaIcEE12_M_constructIPcEEvT_S7_St20forward_iterator_tag
FNDA:0,_ZNSt7__cxx1112basic_stringIcSt11char_traitsIcESaIcEE12_M_constructIPcEEvT_S7_St20forward_iterator_tag
DA:206,0
DA:211,0
DA:212,0
DA:215,0
DA:217,0
DA:219,0
DA:220,0
DA:225,0
DA:226,0
DA:228,0
DA:229,0
DA:232,0
DA:233,0
end_of_record
SF:/usr/include/c++/11/bits/char_traits.h
FN:364,_ZNSt11char_traitsIcE2ltERKcS2_
FNDA:0,_ZNSt11char_traitsIcE2ltERKcS2_
FN:372,_ZNSt11char_traitsIcE7compareEPKcS2_m
FNDA:0,_ZNSt11char_traitsIcE7compareEPKcS2_m
FN:429,_ZNSt11char_traitsIcE4copyEPcPKcm
FNDA:0,_ZNSt11char_traitsIcE4copyEPcPKcm
DA:364,0
DA:367,0
DA:368,0
DA:372,0
DA:374,0
DA:375,0
DA:377,0
DA:379,0
DA:381,0
DA:382,0
DA:383,0
DA:384,0
DA:385,0
DA:386,0
DA:389,0
DA:429,0
DA:431,0
DA:432,0
DA:437,0
end_of_record
SF:/usr/include/c++/11/bits/alloc_traits.h
FN:463,_ZNSt16allocator_traitsISaI10ComponenteEE8allocateERS1_m
FNDA:0,_ZNSt16allocator_traitsISaI10ComponenteEE8allocateERS1_m
FN:495,_ZNSt16allocator_traitsISaI10ComponenteEE10deallocateERS1_PS0_m
FNDA:0,_ZNSt16allocator_traitsISaI10ComponenteEE10deallocateERS1_PS0_m
FN:511,_ZNSt16allocator_traitsISaI10ComponenteEE9constructIS0_JS0_EEEvRS1_PT_DpOT0_
FNDA:0,_ZNSt16allocator_traitsISaI10ComponenteEE9constructIS0_JS0_EEEvRS1_PT_DpOT0_
FN:511,_ZNSt16allocator_traitsISaI10ComponenteEE9constructIS0_JRKNSt7__cxx1112basic_stringIcSt11char_traitsIcESaIcEEESB_RiSB_EEEvRS1_PT_DpOT0_
FNDA:0,_ZNSt16allocator_traitsISaI10ComponenteEE9constructIS0_JRKNSt7__cxx1112basic_stringIcSt11char_traitsIcESaIcEEESB_RiSB_EEEvRS1_PT_DpOT0_
FN:531,_ZNSt16allocator_traitsISaI10ComponenteEE7destroyIS0_EEvRS1_PT_
FNDA:0,_ZNSt16allocator_traitsISaI10ComponenteEE7destroyIS0_EEvRS1_PT_
FN:547,_ZNSt16allocator_traitsISaI10ComponenteEE8max_sizeERKS1_
FNDA:0,_ZNSt16allocator_traitsISaI10ComponenteEE8max_sizeERKS1_
FN:562,_ZNSt16allocator_traitsISaIcEE37select_on_container_copy_constructionERKS0_
FNDA:0,_ZNSt16allocator_traitsISaIcEE37select_on_container_copy_constructionERKS0_
FN:845,_ZSt8_DestroyIP10ComponenteS0_EvT_S2_RSaIT0_E
FNDA:0,_ZSt8_DestroyIP10ComponenteS0_EvT_S2_RSaIT0_E
DA:463,0
DA:464,0
DA:495,0
DA:496,0
DA:511,0
DA:516,0
DA:520,0
DA:511,0
DA:516,0
DA:520,0
DA:531,0
DA:535,0
DA:539,0
DA:547,0
DA:550,0
DA:562,0
DA:563,0
DA:845,0
DA:848,0
DA:849,0
end_of_record
SF:/home/diego/ie0217/repo/ie0217/Tarea7/src/inventario.cpp
FN:6,_ZN10ComponenteC2ERKNSt7__cxx1112basic_stringIcSt11char_traitsIcESaIcEEES7_iS7_
FNDA:0,_ZN10ComponenteC2ERKNSt7__cxx1112basic_stringIcSt11char_traitsIcESaIcEEES7_iS7_
FN:13,_ZN10Inventario17agregarComponenteERKNSt7__cxx1112basic_stringIcSt11char_traitsIcESaIcEEES7_iS7_
FNDA:0,_ZN10Inventario17agregarComponenteERKNSt7__cxx1112basic_stringIcSt11char_traitsIcESaIcEEES7_iS7_
FN:26,_ZN10Inventario17reducirComponenteERKNSt7__cxx1112basic_stringIcSt11char_traitsIcESaIcEEEi
FNDA:0,_ZN10Inventario17reducirComponenteERKNSt7__cxx1112basic_stringIcSt11char_traitsIcESaIcEEEi
FN:39,_ZNK10Inventario17listarComponentesEv
FNDA:0,_ZNK10Inventario17listarComponentesEv
FN:49,_ZN10Inventario16buscarComponenteERKNSt7__cxx1112basic_stringIcSt11char_traitsIcESaIcEEE
FNDA:0,_ZN10Inventario16buscarComponenteERKNSt7__cxx1112basic_stringIcSt11char_traitsIcESaIcEEE
DA:6,0
DA:7,0
DA:8,0
DA:10,0
DA:13,0
DA:15,0
DA:17,0
DA:18,0
DA:19,0
DA:23,0
DA:26,0
DA:28,0
DA:29,0
DA:30,0
DA:31,0
DA:32,0
DA:36,0
DA:39,0
DA:40,0
DA:41,0
DA:42,0
DA:44,0
DA:45,0
DA:49,0
DA:51,0
DA:53,0
DA:54,0
DA:55,0
DA:59,0
end_of_record
SF:/usr/include/c++/11/ext/alloc_traits.h
FN:97,_ZN9__gnu_cxx14__alloc_traitsISaIcEcE17_S_select_on_copyERKS1_
FNDA:0,_ZN9__gnu_cxx14__alloc_traitsISaIcEcE17_S_select_on_copyERKS1_
DA:97,0
DA:98,0
end_of_record
SF:/usr/include/c++/11/bits/stl_algobase.h
FN:230,_ZSt3minImERKT_S2_S2_
FNDA:0,_ZSt3minImERKT_S2_S2_
FN:254,_ZSt3maxImERKT_S2_S2_
FNDA:0,_ZSt3maxImERKT_S2_S2_
FN:313,_ZSt12__niter_baseIP10ComponenteET_S2_
FNDA:0,_ZSt12__niter_baseIP10ComponenteET_S2_
DA:230,0
DA:235,0
DA:236,0
DA:237,0
DA:254,0
DA:259,0
DA:260,0
DA:261,0
DA:313,0
DA:315,0
end_of_record
SF:/usr/include/c++/11/bits/stl_iterator_base_funcs.h
FN:98,_ZSt10__distanceIPcENSt15iterator_traitsIT_E15difference_typeES2_S2_St26random_access_iterator_tag
FNDA:0,_ZSt10__distanceIPcENSt15iterator_traitsIT_E15difference_typeES2_S2_St26random_access_iterator_tag
FN:138,_ZSt8distanceIPcENSt15iterator_traitsIT_E15difference_typeES2_S2_
FNDA:0,_ZSt8distanceIPcENSt15iterator_traitsIT_E15difference_typeES2_S2_
DA:98,0
DA:104,0
DA:138,0
DA:141,0
DA:142,0
end_of_record
TN:
SF:/usr/include/c++/11/bits/stl_iterator.h
FN:1027,_ZN9__gnu_cxx17__normal_iteratorIPKdSt6vectorIdSaIdEEEC2ERKS2_
FNDA:80,_ZN9__gnu_cxx17__normal_iteratorIPKdSt6vectorIdSaIdEEEC2ERKS2_
FN:1042,_ZNK9__gnu_cxx17__normal_iteratorIPKdSt6vectorIdSaIdEEEdeEv
FNDA:52,_ZNK9__gnu_cxx17__normal_iteratorIPKdSt6vectorIdSaIdEEEdeEv
FN:1052,_ZN9__gnu_cxx17__normal_iteratorIPKdSt6vectorIdSaIdEEEppEv
FNDA:48,_ZN9__gnu_cxx17__normal_iteratorIPKdSt6vectorIdSaIdEEEppEv
FN:1105,_ZNK9__gnu_cxx17__normal_iteratorIPKdSt6vectorIdSaIdEEE4baseEv
FNDA:176,_ZNK9__gnu_cxx17__normal_iteratorIPKdSt6vectorIdSaIdEEE4baseEv
FN:1163,_ZN9__gnu_cxxeqIPKdSt6vectorIdSaIdEEEEbRKNS_17__normal_iteratorIT_T0_EESB_
FNDA:16,_ZN9__gnu_cxxeqIPKdSt6vectorIdSaIdEEEEbRKNS_17__normal_iteratorIT_T0_EESB_
FN:1179,_ZN9__gnu_cxxneIPKdSt6vectorIdSaIdEEEEbRKNS_17__normal_iteratorIT_T0_EESB_
FNDA:72,_ZN9__gnu_cxxneIPKdSt6vectorIdSaIdEEEEbRKNS_17__normal_iteratorIT_T0_EESB_
DA:1027,80
DA:1028,80
DA:1042,52
DA:1043,52
DA:1052,48
DA:1054,48
DA:1055,48
DA:1105,176
DA:1106,176
DA:1163,16
DA:1166,16
DA:1179,72
DA:1182,72
end_of_record
SF:/usr/include/c++/11/iostream
end_of_record
SF:/usr/include/c++/11/bits/stl_numeric.h
FN:134,_ZSt10accumulateIN9__gnu_cxx17__normal_iteratorIPKdSt6vectorIdSaIdEEEEdET0_T_S9_S8_
FNDA:5,_ZSt10accumulateIN9__gnu_cxx17__normal_iteratorIPKdSt6vectorIdSaIdEEEEdET0_T_S9_S8_
DA:134,5
DA:140,18
DA:141,13
DA:142,5
end_of_record
SF:/home/diego/ie0217/repo/ie0217/Tarea7/src/calculos.cpp
FN:7,_ZN8Calculos14validarValoresERKSt6vectorIdSaIdEE
FNDA:16,_ZN8Calculos14validarValoresERKSt6vectorIdSaIdEE
FN:21,_ZN8Calculos16resistenciaSerieERKSt6vectorIdSaIdEE
FNDA:2,_ZN8Calculos16resistenciaSerieERKSt6vectorIdSaIdEE
FN:27,_ZN8Calculos19resistenciaParaleloERKSt6vectorIdSaIdEE
FNDA:2,_ZN8Calculos19resistenciaParaleloERKSt6vectorIdSaIdEE
FN:39,_ZN8Calculos17capacitanciaSerieERKSt6vectorIdSaIdEE
FNDA:2,_ZN8Calculos17capacitanciaSerieERKSt6vectorIdSaIdEE
FN:45,_ZN8Calculos20capacitanciaParaleloERKSt6vectorIdSaIdEE
FNDA:2,_ZN8Calculos20capacitanciaParaleloERKSt6vectorIdSaIdEE
FN:57,_ZN8Calculos16inductanciaSerieERKSt6vectorIdSaIdEE
FNDA:1,_ZN8Calculos16inductanciaSerieERKSt6vectorIdSaIdEE
FN:63,_ZN8Calculos19inductanciaParaleloERKSt6vectorIdSaIdEE
FNDA:1,_ZN8Calculos19inductanciaParaleloERKSt6vectorIdSaIdEE
DA:7,16
DA:8,16
DA:9,2
DA:13,39
DA:14,29
DA:15,4
DA:18,10
DA:21,2
DA:22,2
DA:24,2
DA:27,2
DA:28,2
DA:29,2
DA:31,6
DA:32,4
DA:34,2
DA:39,2
DA:40,2
DA:42,2
DA:45,2
DA:46,2
DA:47,2
DA:49,6
DA:50,4
DA:52,2
DA:57,1
DA:58,1
DA:60,1
DA:63,1
DA:64,1
DA:65,1
DA:67,3
DA:68,2
DA:70,1
end_of_record
SF:/usr/include/c++/11/bits/stl_vector.h
FN:820,_ZNKSt6vectorIdSaIdEE5beginEv
FNDA:40,_ZNKSt6vectorIdSaIdEE5beginEv
FN:838,_ZNKSt6vectorIdSaIdEE3endEv
FNDA:40,_ZNKSt6vectorIdSaIdEE3endEv
FN:1007,_ZNKSt6vectorIdSaIdEE5emptyEv
FNDA:16,_ZNKSt6vectorIdSaIdEE5emptyEv
DA:820,40
DA:821,40
DA:838,40
DA:839,40
DA:1007,16
DA:1008,16
end_of_record
