TN:
SF:/home/diego/ie0217/repo/ie0217/Tarea7/src/calculos.cpp
FN:7,_ZN8Calculos14validarValoresERKSt6vectorIdSaIdEE
FN:21,_ZN8Calculos16resistenciaSerieERKSt6vectorIdSaIdEE
FN:27,_ZN8Calculos19resistenciaParaleloERKSt6vectorIdSaIdEE
FN:39,_ZN8Calculos17capacitanciaSerieERKSt6vectorIdSaIdEE
FN:45,_ZN8Calculos20capacitanciaParaleloERKSt6vectorIdSaIdEE
FN:57,_ZN8Calculos16inductanciaSerieERKSt6vectorIdSaIdEE
FN:63,_ZN8Calculos19inductanciaParaleloERKSt6vectorIdSaIdEE
FNDA:1,_ZN8Calculos19inductanciaParaleloERKSt6vectorIdSaIdEE
FNDA:2,_ZN8Calculos17capacitanciaSerieERKSt6vectorIdSaIdEE
FNDA:2,_ZN8Calculos16resistenciaSerieERKSt6vectorIdSaIdEE
FNDA:1,_ZN8Calculos16inductanciaSerieERKSt6vectorIdSaIdEE
FNDA:2,_ZN8Calculos20capacitanciaParaleloERKSt6vectorIdSaIdEE
FNDA:2,_ZN8Calculos19resistenciaParaleloERKSt6vectorIdSaIdEE
FNDA:16,_ZN8Calculos14validarValoresERKSt6vectorIdSaIdEE
FNF:7
FNH:7
DA:7,16
DA:8,16
DA:9,2
DA:13,39
DA:14,29
DA:15,4
DA:18,10
DA:21,2
DA:22,2
DA:24,2
DA:27,2
DA:28,2
DA:29,2
DA:31,6
DA:32,4
DA:34,2
DA:39,2
DA:40,2
DA:42,2
DA:45,2
DA:46,2
DA:47,2
DA:49,6
DA:50,4
DA:52,2
DA:57,1
DA:58,1
DA:60,1
DA:63,1
DA:64,1
DA:65,1
DA:67,3
DA:68,2
DA:70,1
LF:34
LH:34
end_of_record
TN:
SF:/home/diego/ie0217/repo/ie0217/Tarea7/src/inventario.cpp
FN:6,_ZN10ComponenteC2ERKNSt7__cxx1112basic_stringIcSt11char_traitsIcESaIcEEES7_iS7_
FN:13,_ZN10Inventario17agregarComponenteERKNSt7__cxx1112basic_stringIcSt11char_traitsIcESaIcEEES7_iS7_
FN:26,_ZN10Inventario17reducirComponenteERKNSt7__cxx1112basic_stringIcSt11char_traitsIcESaIcEEEi
FN:39,_ZNK10Inventario17listarComponentesEv
FN:49,_ZN10Inventario16buscarComponenteERKNSt7__cxx1112basic_stringIcSt11char_traitsIcESaIcEEE
FNDA:16,_ZN10ComponenteC2ERKNSt7__cxx1112basic_stringIcSt11char_traitsIcESaIcEEES7_iS7_
FNDA:4,_ZN10Inventario17reducirComponenteERKNSt7__cxx1112basic_stringIcSt11char_traitsIcESaIcEEEi
FNDA:4,_ZN10Inventario16buscarComponenteERKNSt7__cxx1112basic_stringIcSt11char_traitsIcESaIcEEE
FNDA:10,_ZNK10Inventario17listarComponentesEv
FNDA:18,_ZN10Inventario17agregarComponenteERKNSt7__cxx1112basic_stringIcSt11char_traitsIcESaIcEEES7_iS7_
FNF:5
FNH:5
DA:6,16
DA:7,16
DA:8,0
DA:10,16
DA:13,18
DA:15,20
DA:17,4
DA:18,2
DA:19,2
DA:23,16
DA:26,4
DA:28,4
DA:29,4
DA:30,4
DA:31,2
DA:32,2
DA:36,0
DA:39,10
DA:40,10
DA:41,2
DA:42,2
DA:44,18
DA:45,10
DA:49,4
DA:51,6
DA:53,4
DA:54,2
DA:55,2
DA:59,2
LF:29
LH:27
end_of_record
